ARM GAS  C:\Users\ADMINI~1\AppData\Local\Temp\ccw5w8aL.s 			page 1


   1              		.cpu cortex-m4
   2              		.eabi_attribute 27, 1
   3              		.eabi_attribute 28, 1
   4              		.eabi_attribute 20, 1
   5              		.eabi_attribute 21, 1
   6              		.eabi_attribute 23, 3
   7              		.eabi_attribute 24, 1
   8              		.eabi_attribute 25, 1
   9              		.eabi_attribute 26, 1
  10              		.eabi_attribute 30, 6
  11              		.eabi_attribute 34, 1
  12              		.eabi_attribute 18, 4
  13              		.file	"sys_init.c"
  14              		.text
  15              	.Ltext0:
  16              		.cfi_sections	.debug_frame
  17              		.section	.text.HAL_GetTick,"ax",%progbits
  18              		.align	1
  19              		.global	HAL_GetTick
  20              		.arch armv7e-m
  21              		.syntax unified
  22              		.thumb
  23              		.thumb_func
  24              		.fpu fpv4-sp-d16
  26              	HAL_GetTick:
  27              	.LFB287:
  28              		.file 1 "e:/MCU/A_Project/Iot_project/test/Src/sys_init.c"
   1:e:/MCU/A_Project/Iot_project/test/Src\sys_init.c **** /*----------------------------------------------------------------------------
   2:e:/MCU/A_Project/Iot_project/test/Src\sys_init.c ****  * Copyright (c) <2016-2018>, <Huawei Technologies Co., Ltd>
   3:e:/MCU/A_Project/Iot_project/test/Src\sys_init.c ****  * All rights reserved.
   4:e:/MCU/A_Project/Iot_project/test/Src\sys_init.c ****  * Redistribution and use in source and binary forms, with or without modification,
   5:e:/MCU/A_Project/Iot_project/test/Src\sys_init.c ****  * are permitted provided that the following conditions are met:
   6:e:/MCU/A_Project/Iot_project/test/Src\sys_init.c ****  * 1. Redistributions of source code must retain the above copyright notice, this list of
   7:e:/MCU/A_Project/Iot_project/test/Src\sys_init.c ****  * conditions and the following disclaimer.
   8:e:/MCU/A_Project/Iot_project/test/Src\sys_init.c ****  * 2. Redistributions in binary form must reproduce the above copyright notice, this list
   9:e:/MCU/A_Project/Iot_project/test/Src\sys_init.c ****  * of conditions and the following disclaimer in the documentation and/or other materials
  10:e:/MCU/A_Project/Iot_project/test/Src\sys_init.c ****  * provided with the distribution.
  11:e:/MCU/A_Project/Iot_project/test/Src\sys_init.c ****  * 3. Neither the name of the copyright holder nor the names of its contributors may be used
  12:e:/MCU/A_Project/Iot_project/test/Src\sys_init.c ****  * to endorse or promote products derived from this software without specific prior written
  13:e:/MCU/A_Project/Iot_project/test/Src\sys_init.c ****  * permission.
  14:e:/MCU/A_Project/Iot_project/test/Src\sys_init.c ****  * THIS SOFTWARE IS PROVIDED BY THE COPYRIGHT HOLDERS AND CONTRIBUTORS
  15:e:/MCU/A_Project/Iot_project/test/Src\sys_init.c ****  * "AS IS" AND ANY EXPRESS OR IMPLIED WARRANTIES, INCLUDING, BUT NOT LIMITED TO,
  16:e:/MCU/A_Project/Iot_project/test/Src\sys_init.c ****  * THE IMPLIED WARRANTIES OF MERCHANTABILITY AND FITNESS FOR A PARTICULAR
  17:e:/MCU/A_Project/Iot_project/test/Src\sys_init.c ****  * PURPOSE ARE DISCLAIMED. IN NO EVENT SHALL THE COPYRIGHT HOLDER OR
  18:e:/MCU/A_Project/Iot_project/test/Src\sys_init.c ****  * CONTRIBUTORS BE LIABLE FOR ANY DIRECT, INDIRECT, INCIDENTAL, SPECIAL,
  19:e:/MCU/A_Project/Iot_project/test/Src\sys_init.c ****  * EXEMPLARY, OR CONSEQUENTIAL DAMAGES (INCLUDING, BUT NOT LIMITED TO,
  20:e:/MCU/A_Project/Iot_project/test/Src\sys_init.c ****  * PROCUREMENT OF SUBSTITUTE GOODS OR SERVICES; LOSS OF USE, DATA, OR PROFITS;
  21:e:/MCU/A_Project/Iot_project/test/Src\sys_init.c ****  * OR BUSINESS INTERRUPTION) HOWEVER CAUSED AND ON ANY THEORY OF LIABILITY,
  22:e:/MCU/A_Project/Iot_project/test/Src\sys_init.c ****  * WHETHER IN CONTRACT, STRICT LIABILITY, OR TORT (INCLUDING NEGLIGENCE OR
  23:e:/MCU/A_Project/Iot_project/test/Src\sys_init.c ****  * OTHERWISE) ARISING IN ANY WAY OUT OF THE USE OF THIS SOFTWARE, EVEN IF
  24:e:/MCU/A_Project/Iot_project/test/Src\sys_init.c ****  * ADVISED OF THE POSSIBILITY OF SUCH DAMAGE.
  25:e:/MCU/A_Project/Iot_project/test/Src\sys_init.c ****  *---------------------------------------------------------------------------*/
  26:e:/MCU/A_Project/Iot_project/test/Src\sys_init.c **** /*----------------------------------------------------------------------------
  27:e:/MCU/A_Project/Iot_project/test/Src\sys_init.c ****  * Notice of Export Control Law
  28:e:/MCU/A_Project/Iot_project/test/Src\sys_init.c ****  * ===============================================
  29:e:/MCU/A_Project/Iot_project/test/Src\sys_init.c ****  * Huawei LiteOS may be subject to applicable export control laws and regulations, which might
  30:e:/MCU/A_Project/Iot_project/test/Src\sys_init.c ****  * include those applicable to Huawei LiteOS of U.S. and the country in which you are located.
ARM GAS  C:\Users\ADMINI~1\AppData\Local\Temp\ccw5w8aL.s 			page 2


  31:e:/MCU/A_Project/Iot_project/test/Src\sys_init.c ****  * Import, export and usage of Huawei LiteOS in any manner by you shall be in compliance with such
  32:e:/MCU/A_Project/Iot_project/test/Src\sys_init.c ****  * applicable export control laws and regulations.
  33:e:/MCU/A_Project/Iot_project/test/Src\sys_init.c ****  *---------------------------------------------------------------------------*/
  34:e:/MCU/A_Project/Iot_project/test/Src\sys_init.c **** 
  35:e:/MCU/A_Project/Iot_project/test/Src\sys_init.c **** #include "sys_init.h"
  36:e:/MCU/A_Project/Iot_project/test/Src\sys_init.c **** 
  37:e:/MCU/A_Project/Iot_project/test/Src\sys_init.c **** 
  38:e:/MCU/A_Project/Iot_project/test/Src\sys_init.c **** uint32_t HAL_GetTick(void)
  39:e:/MCU/A_Project/Iot_project/test/Src\sys_init.c **** {
  29              		.loc 1 39 1
  30              		.cfi_startproc
  31              		@ args = 0, pretend = 0, frame = 0
  32              		@ frame_needed = 1, uses_anonymous_args = 0
  33 0000 80B5     		push	{r7, lr}
  34              	.LCFI0:
  35              		.cfi_def_cfa_offset 8
  36              		.cfi_offset 7, -8
  37              		.cfi_offset 14, -4
  38 0002 00AF     		add	r7, sp, #0
  39              	.LCFI1:
  40              		.cfi_def_cfa_register 7
  40:e:/MCU/A_Project/Iot_project/test/Src\sys_init.c ****     return (uint32_t)LOS_TickCountGet();
  41              		.loc 1 40 22
  42 0004 FFF7FEFF 		bl	LOS_TickCountGet
  43 0008 0246     		mov	r2, r0
  44 000a 0B46     		mov	r3, r1
  45              		.loc 1 40 12
  46 000c 1346     		mov	r3, r2
  41:e:/MCU/A_Project/Iot_project/test/Src\sys_init.c **** }
  47              		.loc 1 41 1
  48 000e 1846     		mov	r0, r3
  49 0010 80BD     		pop	{r7, pc}
  50              		.cfi_endproc
  51              	.LFE287:
  53              		.section	.text._Error_Handler,"ax",%progbits
  54              		.align	1
  55              		.global	_Error_Handler
  56              		.syntax unified
  57              		.thumb
  58              		.thumb_func
  59              		.fpu fpv4-sp-d16
  61              	_Error_Handler:
  62              	.LFB288:
  42:e:/MCU/A_Project/Iot_project/test/Src\sys_init.c **** 
  43:e:/MCU/A_Project/Iot_project/test/Src\sys_init.c **** /**
  44:e:/MCU/A_Project/Iot_project/test/Src\sys_init.c ****   * @brief  This function is executed in case of error occurrence.
  45:e:/MCU/A_Project/Iot_project/test/Src\sys_init.c ****   * @param  file: The file name as string.
  46:e:/MCU/A_Project/Iot_project/test/Src\sys_init.c ****   * @param  line: The line in file as a number.
  47:e:/MCU/A_Project/Iot_project/test/Src\sys_init.c ****   * @retval None
  48:e:/MCU/A_Project/Iot_project/test/Src\sys_init.c ****   */
  49:e:/MCU/A_Project/Iot_project/test/Src\sys_init.c **** void _Error_Handler(char *file, int line)
  50:e:/MCU/A_Project/Iot_project/test/Src\sys_init.c **** {
  63              		.loc 1 50 1
  64              		.cfi_startproc
  65              		@ args = 0, pretend = 0, frame = 8
  66              		@ frame_needed = 1, uses_anonymous_args = 0
  67              		@ link register save eliminated.
ARM GAS  C:\Users\ADMINI~1\AppData\Local\Temp\ccw5w8aL.s 			page 3


  68 0000 80B4     		push	{r7}
  69              	.LCFI2:
  70              		.cfi_def_cfa_offset 4
  71              		.cfi_offset 7, -4
  72 0002 83B0     		sub	sp, sp, #12
  73              	.LCFI3:
  74              		.cfi_def_cfa_offset 16
  75 0004 00AF     		add	r7, sp, #0
  76              	.LCFI4:
  77              		.cfi_def_cfa_register 7
  78 0006 7860     		str	r0, [r7, #4]
  79 0008 3960     		str	r1, [r7]
  80              	.L4:
  51:e:/MCU/A_Project/Iot_project/test/Src\sys_init.c ****   /* USER CODE BEGIN Error_Handler_Debug */
  52:e:/MCU/A_Project/Iot_project/test/Src\sys_init.c ****   /* User can add his own implementation to report the HAL error return state */
  53:e:/MCU/A_Project/Iot_project/test/Src\sys_init.c ****   while(1)
  81              		.loc 1 53 8 discriminator 1
  82 000a FEE7     		b	.L4
  83              		.cfi_endproc
  84              	.LFE288:
  86              		.section	.rodata
  87              		.align	2
  88              	.LC0:
  89 0000 653A2F4D 		.ascii	"e:/MCU/A_Project/Iot_project/test/Src/sys_init.c\000"
  89      43552F41 
  89      5F50726F 
  89      6A656374 
  89      2F496F74 
  90              		.section	.text.SystemClock_Config,"ax",%progbits
  91              		.align	1
  92              		.global	SystemClock_Config
  93              		.syntax unified
  94              		.thumb
  95              		.thumb_func
  96              		.fpu fpv4-sp-d16
  98              	SystemClock_Config:
  99              	.LFB289:
  54:e:/MCU/A_Project/Iot_project/test/Src\sys_init.c ****   {
  55:e:/MCU/A_Project/Iot_project/test/Src\sys_init.c ****   }
  56:e:/MCU/A_Project/Iot_project/test/Src\sys_init.c ****   /* USER CODE END Error_Handler_Debug */
  57:e:/MCU/A_Project/Iot_project/test/Src\sys_init.c **** }
  58:e:/MCU/A_Project/Iot_project/test/Src\sys_init.c **** 
  59:e:/MCU/A_Project/Iot_project/test/Src\sys_init.c **** 
  60:e:/MCU/A_Project/Iot_project/test/Src\sys_init.c **** /**
  61:e:/MCU/A_Project/Iot_project/test/Src\sys_init.c ****   * @brief System Clock Configuration
  62:e:/MCU/A_Project/Iot_project/test/Src\sys_init.c ****   * @retval None
  63:e:/MCU/A_Project/Iot_project/test/Src\sys_init.c ****   */
  64:e:/MCU/A_Project/Iot_project/test/Src\sys_init.c **** void SystemClock_Config(void)
  65:e:/MCU/A_Project/Iot_project/test/Src\sys_init.c **** {
 100              		.loc 1 65 1
 101              		.cfi_startproc
 102              		@ args = 0, pretend = 0, frame = 184
 103              		@ frame_needed = 1, uses_anonymous_args = 0
 104 0000 80B5     		push	{r7, lr}
 105              	.LCFI5:
 106              		.cfi_def_cfa_offset 8
 107              		.cfi_offset 7, -8
ARM GAS  C:\Users\ADMINI~1\AppData\Local\Temp\ccw5w8aL.s 			page 4


 108              		.cfi_offset 14, -4
 109 0002 AEB0     		sub	sp, sp, #184
 110              	.LCFI6:
 111              		.cfi_def_cfa_offset 192
 112 0004 00AF     		add	r7, sp, #0
 113              	.LCFI7:
 114              		.cfi_def_cfa_register 7
  66:e:/MCU/A_Project/Iot_project/test/Src\sys_init.c ****   RCC_OscInitTypeDef RCC_OscInitStruct;
  67:e:/MCU/A_Project/Iot_project/test/Src\sys_init.c ****   RCC_ClkInitTypeDef RCC_ClkInitStruct;
  68:e:/MCU/A_Project/Iot_project/test/Src\sys_init.c ****   RCC_PeriphCLKInitTypeDef PeriphClkInit;
  69:e:/MCU/A_Project/Iot_project/test/Src\sys_init.c **** 
  70:e:/MCU/A_Project/Iot_project/test/Src\sys_init.c ****     /**Configure LSE Drive Capability 
  71:e:/MCU/A_Project/Iot_project/test/Src\sys_init.c ****     */
  72:e:/MCU/A_Project/Iot_project/test/Src\sys_init.c ****   HAL_PWR_EnableBkUpAccess();
 115              		.loc 1 72 3
 116 0006 FFF7FEFF 		bl	HAL_PWR_EnableBkUpAccess
  73:e:/MCU/A_Project/Iot_project/test/Src\sys_init.c **** 
  74:e:/MCU/A_Project/Iot_project/test/Src\sys_init.c ****   __HAL_RCC_LSEDRIVE_CONFIG(RCC_LSEDRIVE_LOW);
 117              		.loc 1 74 3
 118 000a 4A4B     		ldr	r3, .L11
 119 000c D3F89030 		ldr	r3, [r3, #144]
 120 0010 484A     		ldr	r2, .L11
 121 0012 23F01803 		bic	r3, r3, #24
 122 0016 C2F89030 		str	r3, [r2, #144]
  75:e:/MCU/A_Project/Iot_project/test/Src\sys_init.c **** 
  76:e:/MCU/A_Project/Iot_project/test/Src\sys_init.c ****     /**Initializes the CPU, AHB and APB busses clocks 
  77:e:/MCU/A_Project/Iot_project/test/Src\sys_init.c ****     */
  78:e:/MCU/A_Project/Iot_project/test/Src\sys_init.c ****   RCC_OscInitStruct.OscillatorType = RCC_OSCILLATORTYPE_HSI|RCC_OSCILLATORTYPE_LSE
 123              		.loc 1 78 36
 124 001a 1623     		movs	r3, #22
 125 001c 7B67     		str	r3, [r7, #116]
  79:e:/MCU/A_Project/Iot_project/test/Src\sys_init.c ****                               |RCC_OSCILLATORTYPE_MSI;
  80:e:/MCU/A_Project/Iot_project/test/Src\sys_init.c ****   RCC_OscInitStruct.LSEState = RCC_LSE_ON;
 126              		.loc 1 80 30
 127 001e 0123     		movs	r3, #1
 128 0020 FB67     		str	r3, [r7, #124]
  81:e:/MCU/A_Project/Iot_project/test/Src\sys_init.c ****   RCC_OscInitStruct.HSIState = RCC_HSI_ON;
 129              		.loc 1 81 30
 130 0022 4FF48073 		mov	r3, #256
 131 0026 C7F88030 		str	r3, [r7, #128]
  82:e:/MCU/A_Project/Iot_project/test/Src\sys_init.c ****   RCC_OscInitStruct.HSICalibrationValue = 16;
 132              		.loc 1 82 41
 133 002a 1023     		movs	r3, #16
 134 002c C7F88430 		str	r3, [r7, #132]
  83:e:/MCU/A_Project/Iot_project/test/Src\sys_init.c ****   RCC_OscInitStruct.MSIState = RCC_MSI_ON;
 135              		.loc 1 83 30
 136 0030 0123     		movs	r3, #1
 137 0032 C7F88C30 		str	r3, [r7, #140]
  84:e:/MCU/A_Project/Iot_project/test/Src\sys_init.c ****   RCC_OscInitStruct.MSICalibrationValue = 0;
 138              		.loc 1 84 41
 139 0036 0023     		movs	r3, #0
 140 0038 C7F89030 		str	r3, [r7, #144]
  85:e:/MCU/A_Project/Iot_project/test/Src\sys_init.c ****   RCC_OscInitStruct.MSIClockRange = RCC_MSIRANGE_6;
 141              		.loc 1 85 35
 142 003c 6023     		movs	r3, #96
 143 003e C7F89430 		str	r3, [r7, #148]
  86:e:/MCU/A_Project/Iot_project/test/Src\sys_init.c ****   RCC_OscInitStruct.PLL.PLLState = RCC_PLL_ON;
ARM GAS  C:\Users\ADMINI~1\AppData\Local\Temp\ccw5w8aL.s 			page 5


 144              		.loc 1 86 34
 145 0042 0223     		movs	r3, #2
 146 0044 C7F89C30 		str	r3, [r7, #156]
  87:e:/MCU/A_Project/Iot_project/test/Src\sys_init.c ****   RCC_OscInitStruct.PLL.PLLSource = RCC_PLLSOURCE_MSI;
 147              		.loc 1 87 35
 148 0048 0123     		movs	r3, #1
 149 004a C7F8A030 		str	r3, [r7, #160]
  88:e:/MCU/A_Project/Iot_project/test/Src\sys_init.c ****   RCC_OscInitStruct.PLL.PLLM = 1;
 150              		.loc 1 88 30
 151 004e 0123     		movs	r3, #1
 152 0050 C7F8A430 		str	r3, [r7, #164]
  89:e:/MCU/A_Project/Iot_project/test/Src\sys_init.c ****   RCC_OscInitStruct.PLL.PLLN = 40;
 153              		.loc 1 89 30
 154 0054 2823     		movs	r3, #40
 155 0056 C7F8A830 		str	r3, [r7, #168]
  90:e:/MCU/A_Project/Iot_project/test/Src\sys_init.c ****   RCC_OscInitStruct.PLL.PLLP = RCC_PLLP_DIV7;
 156              		.loc 1 90 30
 157 005a 0723     		movs	r3, #7
 158 005c C7F8AC30 		str	r3, [r7, #172]
  91:e:/MCU/A_Project/Iot_project/test/Src\sys_init.c ****   RCC_OscInitStruct.PLL.PLLQ = RCC_PLLQ_DIV2;
 159              		.loc 1 91 30
 160 0060 0223     		movs	r3, #2
 161 0062 C7F8B030 		str	r3, [r7, #176]
  92:e:/MCU/A_Project/Iot_project/test/Src\sys_init.c ****   RCC_OscInitStruct.PLL.PLLR = RCC_PLLR_DIV2;
 162              		.loc 1 92 30
 163 0066 0223     		movs	r3, #2
 164 0068 C7F8B430 		str	r3, [r7, #180]
  93:e:/MCU/A_Project/Iot_project/test/Src\sys_init.c ****   if (HAL_RCC_OscConfig(&RCC_OscInitStruct) != HAL_OK)
 165              		.loc 1 93 7
 166 006c 07F17403 		add	r3, r7, #116
 167 0070 1846     		mov	r0, r3
 168 0072 FFF7FEFF 		bl	HAL_RCC_OscConfig
 169 0076 0346     		mov	r3, r0
 170              		.loc 1 93 6
 171 0078 002B     		cmp	r3, #0
 172 007a 03D0     		beq	.L6
  94:e:/MCU/A_Project/Iot_project/test/Src\sys_init.c ****   {
  95:e:/MCU/A_Project/Iot_project/test/Src\sys_init.c ****     _Error_Handler(__FILE__, __LINE__);
 173              		.loc 1 95 5
 174 007c 5F21     		movs	r1, #95
 175 007e 2E48     		ldr	r0, .L11+4
 176 0080 FFF7FEFF 		bl	_Error_Handler
 177              	.L6:
  96:e:/MCU/A_Project/Iot_project/test/Src\sys_init.c ****   }
  97:e:/MCU/A_Project/Iot_project/test/Src\sys_init.c **** 
  98:e:/MCU/A_Project/Iot_project/test/Src\sys_init.c ****     /**Initializes the CPU, AHB and APB busses clocks 
  99:e:/MCU/A_Project/Iot_project/test/Src\sys_init.c ****     */
 100:e:/MCU/A_Project/Iot_project/test/Src\sys_init.c ****   RCC_ClkInitStruct.ClockType = RCC_CLOCKTYPE_HCLK|RCC_CLOCKTYPE_SYSCLK
 178              		.loc 1 100 31
 179 0084 0F23     		movs	r3, #15
 180 0086 3B66     		str	r3, [r7, #96]
 101:e:/MCU/A_Project/Iot_project/test/Src\sys_init.c ****                               |RCC_CLOCKTYPE_PCLK1|RCC_CLOCKTYPE_PCLK2;
 102:e:/MCU/A_Project/Iot_project/test/Src\sys_init.c ****   RCC_ClkInitStruct.SYSCLKSource = RCC_SYSCLKSOURCE_PLLCLK;
 181              		.loc 1 102 34
 182 0088 0323     		movs	r3, #3
 183 008a 7B66     		str	r3, [r7, #100]
 103:e:/MCU/A_Project/Iot_project/test/Src\sys_init.c ****   RCC_ClkInitStruct.AHBCLKDivider = RCC_SYSCLK_DIV1;
ARM GAS  C:\Users\ADMINI~1\AppData\Local\Temp\ccw5w8aL.s 			page 6


 184              		.loc 1 103 35
 185 008c 0023     		movs	r3, #0
 186 008e BB66     		str	r3, [r7, #104]
 104:e:/MCU/A_Project/Iot_project/test/Src\sys_init.c ****   RCC_ClkInitStruct.APB1CLKDivider = RCC_HCLK_DIV1;
 187              		.loc 1 104 36
 188 0090 0023     		movs	r3, #0
 189 0092 FB66     		str	r3, [r7, #108]
 105:e:/MCU/A_Project/Iot_project/test/Src\sys_init.c ****   RCC_ClkInitStruct.APB2CLKDivider = RCC_HCLK_DIV1;
 190              		.loc 1 105 36
 191 0094 0023     		movs	r3, #0
 192 0096 3B67     		str	r3, [r7, #112]
 106:e:/MCU/A_Project/Iot_project/test/Src\sys_init.c **** 
 107:e:/MCU/A_Project/Iot_project/test/Src\sys_init.c ****   if (HAL_RCC_ClockConfig(&RCC_ClkInitStruct, FLASH_LATENCY_4) != HAL_OK)
 193              		.loc 1 107 7
 194 0098 07F16003 		add	r3, r7, #96
 195 009c 0421     		movs	r1, #4
 196 009e 1846     		mov	r0, r3
 197 00a0 FFF7FEFF 		bl	HAL_RCC_ClockConfig
 198 00a4 0346     		mov	r3, r0
 199              		.loc 1 107 6
 200 00a6 002B     		cmp	r3, #0
 201 00a8 03D0     		beq	.L7
 108:e:/MCU/A_Project/Iot_project/test/Src\sys_init.c ****   {
 109:e:/MCU/A_Project/Iot_project/test/Src\sys_init.c ****     _Error_Handler(__FILE__, __LINE__);
 202              		.loc 1 109 5
 203 00aa 6D21     		movs	r1, #109
 204 00ac 2248     		ldr	r0, .L11+4
 205 00ae FFF7FEFF 		bl	_Error_Handler
 206              	.L7:
 110:e:/MCU/A_Project/Iot_project/test/Src\sys_init.c ****   }
 111:e:/MCU/A_Project/Iot_project/test/Src\sys_init.c **** 
 112:e:/MCU/A_Project/Iot_project/test/Src\sys_init.c ****   PeriphClkInit.PeriphClockSelection = RCC_PERIPHCLK_USART1|RCC_PERIPHCLK_USART2
 207              		.loc 1 112 38
 208 00b2 224B     		ldr	r3, .L11+8
 209 00b4 7B60     		str	r3, [r7, #4]
 113:e:/MCU/A_Project/Iot_project/test/Src\sys_init.c ****                               |RCC_PERIPHCLK_USART3|RCC_PERIPHCLK_LPUART1
 114:e:/MCU/A_Project/Iot_project/test/Src\sys_init.c ****                               |RCC_PERIPHCLK_I2C1|RCC_PERIPHCLK_I2C2
 115:e:/MCU/A_Project/Iot_project/test/Src\sys_init.c ****                               |RCC_PERIPHCLK_I2C3|RCC_PERIPHCLK_SDMMC1
 116:e:/MCU/A_Project/Iot_project/test/Src\sys_init.c ****                               |RCC_PERIPHCLK_ADC;
 117:e:/MCU/A_Project/Iot_project/test/Src\sys_init.c ****   PeriphClkInit.Usart1ClockSelection = RCC_USART1CLKSOURCE_PCLK2;
 210              		.loc 1 117 38
 211 00b6 0023     		movs	r3, #0
 212 00b8 7B62     		str	r3, [r7, #36]
 118:e:/MCU/A_Project/Iot_project/test/Src\sys_init.c ****   PeriphClkInit.Usart2ClockSelection = RCC_USART2CLKSOURCE_PCLK1;
 213              		.loc 1 118 38
 214 00ba 0023     		movs	r3, #0
 215 00bc BB62     		str	r3, [r7, #40]
 119:e:/MCU/A_Project/Iot_project/test/Src\sys_init.c ****   PeriphClkInit.Usart3ClockSelection = RCC_USART3CLKSOURCE_PCLK1;
 216              		.loc 1 119 38
 217 00be 0023     		movs	r3, #0
 218 00c0 FB62     		str	r3, [r7, #44]
 120:e:/MCU/A_Project/Iot_project/test/Src\sys_init.c ****   PeriphClkInit.Lpuart1ClockSelection = RCC_LPUART1CLKSOURCE_HSI;
 219              		.loc 1 120 39
 220 00c2 4FF40063 		mov	r3, #2048
 221 00c6 3B63     		str	r3, [r7, #48]
 121:e:/MCU/A_Project/Iot_project/test/Src\sys_init.c ****   PeriphClkInit.I2c1ClockSelection = RCC_I2C1CLKSOURCE_PCLK1;
 222              		.loc 1 121 36
ARM GAS  C:\Users\ADMINI~1\AppData\Local\Temp\ccw5w8aL.s 			page 7


 223 00c8 0023     		movs	r3, #0
 224 00ca 7B63     		str	r3, [r7, #52]
 122:e:/MCU/A_Project/Iot_project/test/Src\sys_init.c ****   PeriphClkInit.I2c2ClockSelection = RCC_I2C2CLKSOURCE_PCLK1;
 225              		.loc 1 122 36
 226 00cc 0023     		movs	r3, #0
 227 00ce BB63     		str	r3, [r7, #56]
 123:e:/MCU/A_Project/Iot_project/test/Src\sys_init.c ****   PeriphClkInit.I2c3ClockSelection = RCC_I2C3CLKSOURCE_PCLK1;
 228              		.loc 1 123 36
 229 00d0 0023     		movs	r3, #0
 230 00d2 FB63     		str	r3, [r7, #60]
 124:e:/MCU/A_Project/Iot_project/test/Src\sys_init.c ****   PeriphClkInit.AdcClockSelection = RCC_ADCCLKSOURCE_PLLSAI1;
 231              		.loc 1 124 35
 232 00d4 4FF08053 		mov	r3, #268435456
 233 00d8 7B65     		str	r3, [r7, #84]
 125:e:/MCU/A_Project/Iot_project/test/Src\sys_init.c ****   PeriphClkInit.Sdmmc1ClockSelection = RCC_SDMMC1CLKSOURCE_PLLSAI1;
 234              		.loc 1 125 38
 235 00da 4FF08063 		mov	r3, #67108864
 236 00de FB64     		str	r3, [r7, #76]
 126:e:/MCU/A_Project/Iot_project/test/Src\sys_init.c ****   PeriphClkInit.PLLSAI1.PLLSAI1Source = RCC_PLLSOURCE_MSI;
 237              		.loc 1 126 39
 238 00e0 0123     		movs	r3, #1
 239 00e2 BB60     		str	r3, [r7, #8]
 127:e:/MCU/A_Project/Iot_project/test/Src\sys_init.c ****   PeriphClkInit.PLLSAI1.PLLSAI1M = 1;
 240              		.loc 1 127 34
 241 00e4 0123     		movs	r3, #1
 242 00e6 FB60     		str	r3, [r7, #12]
 128:e:/MCU/A_Project/Iot_project/test/Src\sys_init.c ****   PeriphClkInit.PLLSAI1.PLLSAI1N = 16;
 243              		.loc 1 128 34
 244 00e8 1023     		movs	r3, #16
 245 00ea 3B61     		str	r3, [r7, #16]
 129:e:/MCU/A_Project/Iot_project/test/Src\sys_init.c ****   PeriphClkInit.PLLSAI1.PLLSAI1P = RCC_PLLP_DIV7;
 246              		.loc 1 129 34
 247 00ec 0723     		movs	r3, #7
 248 00ee 7B61     		str	r3, [r7, #20]
 130:e:/MCU/A_Project/Iot_project/test/Src\sys_init.c ****   PeriphClkInit.PLLSAI1.PLLSAI1Q = RCC_PLLQ_DIV2;
 249              		.loc 1 130 34
 250 00f0 0223     		movs	r3, #2
 251 00f2 BB61     		str	r3, [r7, #24]
 131:e:/MCU/A_Project/Iot_project/test/Src\sys_init.c ****   PeriphClkInit.PLLSAI1.PLLSAI1R = RCC_PLLR_DIV2;
 252              		.loc 1 131 34
 253 00f4 0223     		movs	r3, #2
 254 00f6 FB61     		str	r3, [r7, #28]
 132:e:/MCU/A_Project/Iot_project/test/Src\sys_init.c ****   PeriphClkInit.PLLSAI1.PLLSAI1ClockOut = RCC_PLLSAI1_48M2CLK|RCC_PLLSAI1_ADC1CLK;
 255              		.loc 1 132 41
 256 00f8 4FF08873 		mov	r3, #17825792
 257 00fc 3B62     		str	r3, [r7, #32]
 133:e:/MCU/A_Project/Iot_project/test/Src\sys_init.c ****   if (HAL_RCCEx_PeriphCLKConfig(&PeriphClkInit) != HAL_OK)
 258              		.loc 1 133 7
 259 00fe 3B1D     		adds	r3, r7, #4
 260 0100 1846     		mov	r0, r3
 261 0102 FFF7FEFF 		bl	HAL_RCCEx_PeriphCLKConfig
 262 0106 0346     		mov	r3, r0
 263              		.loc 1 133 6
 264 0108 002B     		cmp	r3, #0
 265 010a 03D0     		beq	.L8
 134:e:/MCU/A_Project/Iot_project/test/Src\sys_init.c ****   {
 135:e:/MCU/A_Project/Iot_project/test/Src\sys_init.c ****     _Error_Handler(__FILE__, __LINE__);
ARM GAS  C:\Users\ADMINI~1\AppData\Local\Temp\ccw5w8aL.s 			page 8


 266              		.loc 1 135 5
 267 010c 8721     		movs	r1, #135
 268 010e 0A48     		ldr	r0, .L11+4
 269 0110 FFF7FEFF 		bl	_Error_Handler
 270              	.L8:
 136:e:/MCU/A_Project/Iot_project/test/Src\sys_init.c ****   }
 137:e:/MCU/A_Project/Iot_project/test/Src\sys_init.c **** 
 138:e:/MCU/A_Project/Iot_project/test/Src\sys_init.c ****     /**Configure the main internal regulator output voltage 
 139:e:/MCU/A_Project/Iot_project/test/Src\sys_init.c ****     */
 140:e:/MCU/A_Project/Iot_project/test/Src\sys_init.c ****   if (HAL_PWREx_ControlVoltageScaling(PWR_REGULATOR_VOLTAGE_SCALE1) != HAL_OK)
 271              		.loc 1 140 7
 272 0114 4FF40070 		mov	r0, #512
 273 0118 FFF7FEFF 		bl	HAL_PWREx_ControlVoltageScaling
 274 011c 0346     		mov	r3, r0
 275              		.loc 1 140 6
 276 011e 002B     		cmp	r3, #0
 277 0120 03D0     		beq	.L10
 141:e:/MCU/A_Project/Iot_project/test/Src\sys_init.c ****   {
 142:e:/MCU/A_Project/Iot_project/test/Src\sys_init.c ****     _Error_Handler(__FILE__, __LINE__);
 278              		.loc 1 142 5
 279 0122 8E21     		movs	r1, #142
 280 0124 0448     		ldr	r0, .L11+4
 281 0126 FFF7FEFF 		bl	_Error_Handler
 282              	.L10:
 143:e:/MCU/A_Project/Iot_project/test/Src\sys_init.c ****   }
 144:e:/MCU/A_Project/Iot_project/test/Src\sys_init.c **** 
 145:e:/MCU/A_Project/Iot_project/test/Src\sys_init.c ****     /**Configure the Systick interrupt time 
 146:e:/MCU/A_Project/Iot_project/test/Src\sys_init.c ****     */
 147:e:/MCU/A_Project/Iot_project/test/Src\sys_init.c ****   //HAL_SYSTICK_Config(HAL_RCC_GetHCLKFreq()/1000);
 148:e:/MCU/A_Project/Iot_project/test/Src\sys_init.c **** 
 149:e:/MCU/A_Project/Iot_project/test/Src\sys_init.c ****     /**Configure the Systick 
 150:e:/MCU/A_Project/Iot_project/test/Src\sys_init.c ****     */
 151:e:/MCU/A_Project/Iot_project/test/Src\sys_init.c ****   //HAL_SYSTICK_CLKSourceConfig(SYSTICK_CLKSOURCE_HCLK);
 152:e:/MCU/A_Project/Iot_project/test/Src\sys_init.c **** 
 153:e:/MCU/A_Project/Iot_project/test/Src\sys_init.c ****     /**Enable MSI Auto calibration 
 154:e:/MCU/A_Project/Iot_project/test/Src\sys_init.c ****     */
 155:e:/MCU/A_Project/Iot_project/test/Src\sys_init.c ****   //HAL_RCCEx_EnableMSIPLLMode();
 156:e:/MCU/A_Project/Iot_project/test/Src\sys_init.c **** 
 157:e:/MCU/A_Project/Iot_project/test/Src\sys_init.c ****   /* SysTick_IRQn interrupt configuration */
 158:e:/MCU/A_Project/Iot_project/test/Src\sys_init.c ****   //HAL_NVIC_SetPriority(SysTick_IRQn, 0, 0);
 159:e:/MCU/A_Project/Iot_project/test/Src\sys_init.c **** }
 283              		.loc 1 159 1
 284 012a 00BF     		nop
 285 012c B837     		adds	r7, r7, #184
 286              	.LCFI8:
 287              		.cfi_def_cfa_offset 8
 288 012e BD46     		mov	sp, r7
 289              	.LCFI9:
 290              		.cfi_def_cfa_register 13
 291              		@ sp needed
 292 0130 80BD     		pop	{r7, pc}
 293              	.L12:
 294 0132 00BF     		.align	2
 295              	.L11:
 296 0134 00100240 		.word	1073876992
 297 0138 00000000 		.word	.LC0
 298 013c E7410800 		.word	541159
ARM GAS  C:\Users\ADMINI~1\AppData\Local\Temp\ccw5w8aL.s 			page 9


 299              		.cfi_endproc
 300              	.LFE289:
 302              		.section	.text.atiny_usleep,"ax",%progbits
 303              		.align	1
 304              		.global	atiny_usleep
 305              		.syntax unified
 306              		.thumb
 307              		.thumb_func
 308              		.fpu fpv4-sp-d16
 310              	atiny_usleep:
 311              	.LFB290:
 160:e:/MCU/A_Project/Iot_project/test/Src\sys_init.c **** 
 161:e:/MCU/A_Project/Iot_project/test/Src\sys_init.c **** 
 162:e:/MCU/A_Project/Iot_project/test/Src\sys_init.c **** #ifdef  USE_FULL_ASSERT
 163:e:/MCU/A_Project/Iot_project/test/Src\sys_init.c **** /**
 164:e:/MCU/A_Project/Iot_project/test/Src\sys_init.c ****   * @brief  Reports the name of the source file and the source line number
 165:e:/MCU/A_Project/Iot_project/test/Src\sys_init.c ****   *         where the assert_param error has occurred.
 166:e:/MCU/A_Project/Iot_project/test/Src\sys_init.c ****   * @param  file: pointer to the source file name
 167:e:/MCU/A_Project/Iot_project/test/Src\sys_init.c ****   * @param  line: assert_param error line source number
 168:e:/MCU/A_Project/Iot_project/test/Src\sys_init.c ****   * @retval None
 169:e:/MCU/A_Project/Iot_project/test/Src\sys_init.c ****   */
 170:e:/MCU/A_Project/Iot_project/test/Src\sys_init.c **** void assert_failed(uint8_t* file, uint32_t line)
 171:e:/MCU/A_Project/Iot_project/test/Src\sys_init.c **** { 
 172:e:/MCU/A_Project/Iot_project/test/Src\sys_init.c ****   /* USER CODE BEGIN 6 */
 173:e:/MCU/A_Project/Iot_project/test/Src\sys_init.c ****   /* User can add his own implementation to report the file name and line number,
 174:e:/MCU/A_Project/Iot_project/test/Src\sys_init.c ****      tex: printf("Wrong parameters value: file %s on line %d\r\n", file, line) */
 175:e:/MCU/A_Project/Iot_project/test/Src\sys_init.c ****   /* USER CODE END 6 */
 176:e:/MCU/A_Project/Iot_project/test/Src\sys_init.c **** }
 177:e:/MCU/A_Project/Iot_project/test/Src\sys_init.c **** #endif /* USE_FULL_ASSERT */
 178:e:/MCU/A_Project/Iot_project/test/Src\sys_init.c **** 
 179:e:/MCU/A_Project/Iot_project/test/Src\sys_init.c **** 
 180:e:/MCU/A_Project/Iot_project/test/Src\sys_init.c **** /*
 181:e:/MCU/A_Project/Iot_project/test/Src\sys_init.c ****  * atiny_adapter user interface
 182:e:/MCU/A_Project/Iot_project/test/Src\sys_init.c ****  */
 183:e:/MCU/A_Project/Iot_project/test/Src\sys_init.c **** void atiny_usleep(unsigned long usec)
 184:e:/MCU/A_Project/Iot_project/test/Src\sys_init.c **** {
 312              		.loc 1 184 1
 313              		.cfi_startproc
 314              		@ args = 0, pretend = 0, frame = 8
 315              		@ frame_needed = 1, uses_anonymous_args = 0
 316 0000 80B5     		push	{r7, lr}
 317              	.LCFI10:
 318              		.cfi_def_cfa_offset 8
 319              		.cfi_offset 7, -8
 320              		.cfi_offset 14, -4
 321 0002 82B0     		sub	sp, sp, #8
 322              	.LCFI11:
 323              		.cfi_def_cfa_offset 16
 324 0004 00AF     		add	r7, sp, #0
 325              	.LCFI12:
 326              		.cfi_def_cfa_register 7
 327 0006 7860     		str	r0, [r7, #4]
 185:e:/MCU/A_Project/Iot_project/test/Src\sys_init.c ****     delayus((uint32_t)usec);
 328              		.loc 1 185 5
 329 0008 7868     		ldr	r0, [r7, #4]
 330 000a FFF7FEFF 		bl	delayus
 186:e:/MCU/A_Project/Iot_project/test/Src\sys_init.c **** }
ARM GAS  C:\Users\ADMINI~1\AppData\Local\Temp\ccw5w8aL.s 			page 10


 331              		.loc 1 186 1
 332 000e 00BF     		nop
 333 0010 0837     		adds	r7, r7, #8
 334              	.LCFI13:
 335              		.cfi_def_cfa_offset 8
 336 0012 BD46     		mov	sp, r7
 337              	.LCFI14:
 338              		.cfi_def_cfa_register 13
 339              		@ sp needed
 340 0014 80BD     		pop	{r7, pc}
 341              		.cfi_endproc
 342              	.LFE290:
 344              		.section	.text.atiny_random,"ax",%progbits
 345              		.align	1
 346              		.global	atiny_random
 347              		.syntax unified
 348              		.thumb
 349              		.thumb_func
 350              		.fpu fpv4-sp-d16
 352              	atiny_random:
 353              	.LFB291:
 187:e:/MCU/A_Project/Iot_project/test/Src\sys_init.c **** 
 188:e:/MCU/A_Project/Iot_project/test/Src\sys_init.c **** int atiny_random(void *output, size_t len)
 189:e:/MCU/A_Project/Iot_project/test/Src\sys_init.c **** {
 354              		.loc 1 189 1
 355              		.cfi_startproc
 356              		@ args = 0, pretend = 0, frame = 8
 357              		@ frame_needed = 1, uses_anonymous_args = 0
 358 0000 80B5     		push	{r7, lr}
 359              	.LCFI15:
 360              		.cfi_def_cfa_offset 8
 361              		.cfi_offset 7, -8
 362              		.cfi_offset 14, -4
 363 0002 82B0     		sub	sp, sp, #8
 364              	.LCFI16:
 365              		.cfi_def_cfa_offset 16
 366 0004 00AF     		add	r7, sp, #0
 367              	.LCFI17:
 368              		.cfi_def_cfa_register 7
 369 0006 7860     		str	r0, [r7, #4]
 370 0008 3960     		str	r1, [r7]
 190:e:/MCU/A_Project/Iot_project/test/Src\sys_init.c ****     return hal_rng_generate_buffer(output, len);
 371              		.loc 1 190 12
 372 000a 3968     		ldr	r1, [r7]
 373 000c 7868     		ldr	r0, [r7, #4]
 374 000e FFF7FEFF 		bl	hal_rng_generate_buffer
 375 0012 0346     		mov	r3, r0
 191:e:/MCU/A_Project/Iot_project/test/Src\sys_init.c **** }
 376              		.loc 1 191 1
 377 0014 1846     		mov	r0, r3
 378 0016 0837     		adds	r7, r7, #8
 379              	.LCFI18:
 380              		.cfi_def_cfa_offset 8
 381 0018 BD46     		mov	sp, r7
 382              	.LCFI19:
 383              		.cfi_def_cfa_register 13
 384              		@ sp needed
ARM GAS  C:\Users\ADMINI~1\AppData\Local\Temp\ccw5w8aL.s 			page 11


 385 001a 80BD     		pop	{r7, pc}
 386              		.cfi_endproc
 387              	.LFE291:
 389              		.section	.text.atiny_reboot,"ax",%progbits
 390              		.align	1
 391              		.global	atiny_reboot
 392              		.syntax unified
 393              		.thumb
 394              		.thumb_func
 395              		.fpu fpv4-sp-d16
 397              	atiny_reboot:
 398              	.LFB292:
 192:e:/MCU/A_Project/Iot_project/test/Src\sys_init.c **** 
 193:e:/MCU/A_Project/Iot_project/test/Src\sys_init.c **** void atiny_reboot(void)
 194:e:/MCU/A_Project/Iot_project/test/Src\sys_init.c **** {
 399              		.loc 1 194 1
 400              		.cfi_startproc
 401              		@ args = 0, pretend = 0, frame = 0
 402              		@ frame_needed = 1, uses_anonymous_args = 0
 403 0000 80B5     		push	{r7, lr}
 404              	.LCFI20:
 405              		.cfi_def_cfa_offset 8
 406              		.cfi_offset 7, -8
 407              		.cfi_offset 14, -4
 408 0002 00AF     		add	r7, sp, #0
 409              	.LCFI21:
 410              		.cfi_def_cfa_register 7
 195:e:/MCU/A_Project/Iot_project/test/Src\sys_init.c ****     HAL_NVIC_SystemReset();
 411              		.loc 1 195 5
 412 0004 FFF7FEFF 		bl	HAL_NVIC_SystemReset
 196:e:/MCU/A_Project/Iot_project/test/Src\sys_init.c **** }
 413              		.loc 1 196 1
 414 0008 00BF     		nop
 415 000a 80BD     		pop	{r7, pc}
 416              		.cfi_endproc
 417              	.LFE292:
 419              		.text
 420              	.Letext0:
 421              		.file 2 "c:\\users\\administrator\\.iotlink\\tools\\gcc-arm-none-eabi\\lib\\gcc\\arm-none-eabi\\9.
 422              		.file 3 "c:\\users\\administrator\\.iotlink\\tools\\gcc-arm-none-eabi\\arm-none-eabi\\include\\mac
 423              		.file 4 "c:\\users\\administrator\\.iotlink\\tools\\gcc-arm-none-eabi\\arm-none-eabi\\include\\sys
 424              		.file 5 "c:\\users\\administrator\\.iotlink\\tools\\gcc-arm-none-eabi\\arm-none-eabi\\include\\sys
 425              		.file 6 "c:\\users\\administrator\\.iotlink\\tools\\gcc-arm-none-eabi\\arm-none-eabi\\include\\sys
 426              		.file 7 "C:/Users/Administrator/.iotlink/sdk/IoT_LINK/iot_link/os/liteos/include/los_typedef.h"
 427              		.file 8 "c:\\users\\administrator\\.iotlink\\tools\\gcc-arm-none-eabi\\arm-none-eabi\\include\\sys
 428              		.file 9 "C:/Users/Administrator/.iotlink/sdk/IoT_LINK/iot_link/os/liteos/arch/arm/common/cmsis/cor
 429              		.file 10 "e:/MCU/A_Project/Iot_project/test/Inc/system_stm32l4xx.h"
 430              		.file 11 "e:/MCU/A_Project/Iot_project/test/Inc/stm32l431xx.h"
 431              		.file 12 "C:/Users/Administrator/.iotlink/sdk/IoT_LINK/iot_link/os/liteos/arch/arm/arm-m/include/l
 432              		.file 13 "C:/Users/Administrator/.iotlink/sdk/IoT_LINK/iot_link/os/liteos/include/los_list.h"
 433              		.file 14 "C:/Users/Administrator/.iotlink/sdk/IoT_LINK/iot_link/os/liteos/include/los_event.h"
 434              		.file 15 "C:/Users/Administrator/.iotlink/sdk/IoT_LINK/drivers/third_party/ST/STM32L4xx_HAL_Driver
 435              		.file 16 "C:/Users/Administrator/.iotlink/sdk/IoT_LINK/drivers/third_party/ST/STM32L4xx_HAL_Driver
 436              		.file 17 "C:/Users/Administrator/.iotlink/sdk/IoT_LINK/drivers/third_party/ST/STM32L4xx_HAL_Driver
 437              		.file 18 "C:/Users/Administrator/.iotlink/sdk/IoT_LINK/drivers/third_party/ST/STM32L4xx_HAL_Driver
 438              		.file 19 "C:/Users/Administrator/.iotlink/sdk/IoT_LINK/drivers/third_party/ST/STM32L4xx_HAL_Driver
 439              		.file 20 "C:/Users/Administrator/.iotlink/sdk/IoT_LINK/drivers/third_party/ST/STM32L4xx_HAL_Driver
ARM GAS  C:\Users\ADMINI~1\AppData\Local\Temp\ccw5w8aL.s 			page 12


 440              		.file 21 "C:/Users/Administrator/.iotlink/sdk/IoT_LINK/drivers/third_party/ST/STM32L4xx_HAL_Driver
 441              		.file 22 "C:/Users/Administrator/.iotlink/sdk/IoT_LINK/iot_link/os/liteos/include/los_config.h"
 442              		.file 23 "C:/Users/Administrator/.iotlink/sdk/IoT_LINK/iot_link/os/liteos/include/los_err.h"
 443              		.file 24 "C:/Users/Administrator/.iotlink/sdk/IoT_LINK/iot_link/os/liteos/include/los_tick.h"
 444              		.file 25 "C:/Users/Administrator/.iotlink/sdk/IoT_LINK/iot_link/os/liteos/include/los_task.h"
 445              		.file 26 "C:/Users/Administrator/.iotlink/sdk/IoT_LINK/iot_link/os/liteos/base/include/los_task.ph
 446              		.file 27 "C:/Users/Administrator/.iotlink/sdk/IoT_LINK/iot_link/os/liteos/include/los_memory.h"
 447              		.file 28 "C:/Users/Administrator/.iotlink/sdk/IoT_LINK/iot_link/os/liteos/base/include/los_queue.p
 448              		.file 29 "c:\\users\\administrator\\.iotlink\\tools\\gcc-arm-none-eabi\\arm-none-eabi\\include\\st
 449              		.file 30 "e:/MCU/A_Project/Iot_project/test/Inc/usart.h"
 450              		.file 31 "e:/MCU/A_Project/Iot_project/test/Inc/i2c.h"
 451              		.file 32 "e:/MCU/A_Project/Iot_project/test/Inc/spi.h"
 452              		.file 33 "e:/MCU/A_Project/Iot_project/test/Hardware/LCD/lcd.h"
ARM GAS  C:\Users\ADMINI~1\AppData\Local\Temp\ccw5w8aL.s 			page 13

