ARM GAS  C:\Users\ADMINI~1\AppData\Local\Temp\cctemkqi.s 			page 1


   1              		.cpu cortex-m4
   2              		.eabi_attribute 27, 1
   3              		.eabi_attribute 28, 1
   4              		.eabi_attribute 20, 1
   5              		.eabi_attribute 21, 1
   6              		.eabi_attribute 23, 3
   7              		.eabi_attribute 24, 1
   8              		.eabi_attribute 25, 1
   9              		.eabi_attribute 26, 1
  10              		.eabi_attribute 30, 6
  11              		.eabi_attribute 34, 1
  12              		.eabi_attribute 18, 4
  13              		.file	"boudica150_oc.c"
  14              		.text
  15              	.Ltext0:
  16              		.cfi_sections	.debug_frame
  17              		.section	.bss.s_boudica150_oc_cb,"aw",%nobits
  18              		.align	2
  21              	s_boudica150_oc_cb:
  22 0000 00000000 		.space	344
  22      00000000 
  22      00000000 
  22      00000000 
  22      00000000 
  23              		.section	.bss.s_report_mutex,"aw",%nobits
  24              		.align	2
  27              	s_report_mutex:
  28 0000 00000000 		.space	4
  29              		.section	.bss.s_oc_handle,"aw",%nobits
  30              		.align	2
  33              	s_oc_handle:
  34 0000 00000000 		.space	4
  35              		.global	wireless_stats
  36              		.section	.bss.wireless_stats,"aw",%nobits
  37              		.align	2
  40              	wireless_stats:
  41 0000 00000000 		.space	16
  41      00000000 
  41      00000000 
  41      00000000 
  42              		.section	.text.boudica150_atcmd,"ax",%progbits
  43              		.align	1
  44              		.arch armv7e-m
  45              		.syntax unified
  46              		.thumb
  47              		.thumb_func
  48              		.fpu fpv4-sp-d16
  50              	boudica150_atcmd:
  51              	.LFB3:
  52              		.file 1 "C:/Users/Administrator/.iotlink/sdk/IoT_LINK/iot_link/oc/oc_lwm2m/boudica150_oc/boudica15
   1:C:/Users/Administrator/.iotlink/sdk/IoT_LINK/iot_link/oc/oc_lwm2m/boudica150_oc\boudica150_oc.c **** /*----------------------------------------------------------------------------
   2:C:/Users/Administrator/.iotlink/sdk/IoT_LINK/iot_link/oc/oc_lwm2m/boudica150_oc\boudica150_oc.c ****  * Copyright (c) <2016-2018>, <Huawei Technologies Co., Ltd>
   3:C:/Users/Administrator/.iotlink/sdk/IoT_LINK/iot_link/oc/oc_lwm2m/boudica150_oc\boudica150_oc.c ****  * All rights reserved.
   4:C:/Users/Administrator/.iotlink/sdk/IoT_LINK/iot_link/oc/oc_lwm2m/boudica150_oc\boudica150_oc.c ****  * Redistribution and use in source and binary forms, with or without modification,
   5:C:/Users/Administrator/.iotlink/sdk/IoT_LINK/iot_link/oc/oc_lwm2m/boudica150_oc\boudica150_oc.c ****  * are permitted provided that the following conditions are met:
   6:C:/Users/Administrator/.iotlink/sdk/IoT_LINK/iot_link/oc/oc_lwm2m/boudica150_oc\boudica150_oc.c ****  * 1. Redistributions of source code must retain the above copyright notice, this list of
   7:C:/Users/Administrator/.iotlink/sdk/IoT_LINK/iot_link/oc/oc_lwm2m/boudica150_oc\boudica150_oc.c ****  * conditions and the following disclaimer.
ARM GAS  C:\Users\ADMINI~1\AppData\Local\Temp\cctemkqi.s 			page 2


   8:C:/Users/Administrator/.iotlink/sdk/IoT_LINK/iot_link/oc/oc_lwm2m/boudica150_oc\boudica150_oc.c ****  * 2. Redistributions in binary form must reproduce the above copyright notice, this list
   9:C:/Users/Administrator/.iotlink/sdk/IoT_LINK/iot_link/oc/oc_lwm2m/boudica150_oc\boudica150_oc.c ****  * of conditions and the following disclaimer in the documentation and/or other materials
  10:C:/Users/Administrator/.iotlink/sdk/IoT_LINK/iot_link/oc/oc_lwm2m/boudica150_oc\boudica150_oc.c ****  * provided with the distribution.
  11:C:/Users/Administrator/.iotlink/sdk/IoT_LINK/iot_link/oc/oc_lwm2m/boudica150_oc\boudica150_oc.c ****  * 3. Neither the name of the copyright holder nor the names of its contributors may be used
  12:C:/Users/Administrator/.iotlink/sdk/IoT_LINK/iot_link/oc/oc_lwm2m/boudica150_oc\boudica150_oc.c ****  * to endorse or promote products derived from this software without specific prior written
  13:C:/Users/Administrator/.iotlink/sdk/IoT_LINK/iot_link/oc/oc_lwm2m/boudica150_oc\boudica150_oc.c ****  * permission.
  14:C:/Users/Administrator/.iotlink/sdk/IoT_LINK/iot_link/oc/oc_lwm2m/boudica150_oc\boudica150_oc.c ****  * THIS SOFTWARE IS PROVIDED BY THE COPYRIGHT HOLDERS AND CONTRIBUTORS
  15:C:/Users/Administrator/.iotlink/sdk/IoT_LINK/iot_link/oc/oc_lwm2m/boudica150_oc\boudica150_oc.c ****  * "AS IS" AND ANY EXPRESS OR IMPLIED WARRANTIES, INCLUDING, BUT NOT LIMITED TO,
  16:C:/Users/Administrator/.iotlink/sdk/IoT_LINK/iot_link/oc/oc_lwm2m/boudica150_oc\boudica150_oc.c ****  * THE IMPLIED WARRANTIES OF MERCHANTABILITY AND FITNESS FOR A PARTICULAR
  17:C:/Users/Administrator/.iotlink/sdk/IoT_LINK/iot_link/oc/oc_lwm2m/boudica150_oc\boudica150_oc.c ****  * PURPOSE ARE DISCLAIMED. IN NO EVENT SHALL THE COPYRIGHT HOLDER OR
  18:C:/Users/Administrator/.iotlink/sdk/IoT_LINK/iot_link/oc/oc_lwm2m/boudica150_oc\boudica150_oc.c ****  * CONTRIBUTORS BE LIABLE FOR ANY DIRECT, INDIRECT, INCIDENTAL, SPECIAL,
  19:C:/Users/Administrator/.iotlink/sdk/IoT_LINK/iot_link/oc/oc_lwm2m/boudica150_oc\boudica150_oc.c ****  * EXEMPLARY, OR CONSEQUENTIAL DAMAGES (INCLUDING, BUT NOT LIMITED TO,
  20:C:/Users/Administrator/.iotlink/sdk/IoT_LINK/iot_link/oc/oc_lwm2m/boudica150_oc\boudica150_oc.c ****  * PROCUREMENT OF SUBSTITUTE GOODS OR SERVICES; LOSS OF USE, DATA, OR PROFITS;
  21:C:/Users/Administrator/.iotlink/sdk/IoT_LINK/iot_link/oc/oc_lwm2m/boudica150_oc\boudica150_oc.c ****  * OR BUSINESS INTERRUPTION) HOWEVER CAUSED AND ON ANY THEORY OF LIABILITY,
  22:C:/Users/Administrator/.iotlink/sdk/IoT_LINK/iot_link/oc/oc_lwm2m/boudica150_oc\boudica150_oc.c ****  * WHETHER IN CONTRACT, STRICT LIABILITY, OR TORT (INCLUDING NEGLIGENCE OR
  23:C:/Users/Administrator/.iotlink/sdk/IoT_LINK/iot_link/oc/oc_lwm2m/boudica150_oc\boudica150_oc.c ****  * OTHERWISE) ARISING IN ANY WAY OUT OF THE USE OF THIS SOFTWARE, EVEN IF
  24:C:/Users/Administrator/.iotlink/sdk/IoT_LINK/iot_link/oc/oc_lwm2m/boudica150_oc\boudica150_oc.c ****  * ADVISED OF THE POSSIBILITY OF SUCH DAMAGE.
  25:C:/Users/Administrator/.iotlink/sdk/IoT_LINK/iot_link/oc/oc_lwm2m/boudica150_oc\boudica150_oc.c ****  *---------------------------------------------------------------------------*/
  26:C:/Users/Administrator/.iotlink/sdk/IoT_LINK/iot_link/oc/oc_lwm2m/boudica150_oc\boudica150_oc.c **** /*----------------------------------------------------------------------------
  27:C:/Users/Administrator/.iotlink/sdk/IoT_LINK/iot_link/oc/oc_lwm2m/boudica150_oc\boudica150_oc.c ****  * Notice of Export Control Law
  28:C:/Users/Administrator/.iotlink/sdk/IoT_LINK/iot_link/oc/oc_lwm2m/boudica150_oc\boudica150_oc.c ****  * ===============================================
  29:C:/Users/Administrator/.iotlink/sdk/IoT_LINK/iot_link/oc/oc_lwm2m/boudica150_oc\boudica150_oc.c ****  * Huawei LiteOS may be subject to applicable export control laws and regulations, which might
  30:C:/Users/Administrator/.iotlink/sdk/IoT_LINK/iot_link/oc/oc_lwm2m/boudica150_oc\boudica150_oc.c ****  * include those applicable to Huawei LiteOS of U.S. and the country in which you are located.
  31:C:/Users/Administrator/.iotlink/sdk/IoT_LINK/iot_link/oc/oc_lwm2m/boudica150_oc\boudica150_oc.c ****  * Import, export and usage of Huawei LiteOS in any manner by you shall be in compliance with such
  32:C:/Users/Administrator/.iotlink/sdk/IoT_LINK/iot_link/oc/oc_lwm2m/boudica150_oc\boudica150_oc.c ****  * applicable export control laws and regulations.
  33:C:/Users/Administrator/.iotlink/sdk/IoT_LINK/iot_link/oc/oc_lwm2m/boudica150_oc\boudica150_oc.c ****  *---------------------------------------------------------------------------*/
  34:C:/Users/Administrator/.iotlink/sdk/IoT_LINK/iot_link/oc/oc_lwm2m/boudica150_oc\boudica150_oc.c **** 
  35:C:/Users/Administrator/.iotlink/sdk/IoT_LINK/iot_link/oc/oc_lwm2m/boudica150_oc\boudica150_oc.c **** ///< you must config the at module ,for the NB modules need the at
  36:C:/Users/Administrator/.iotlink/sdk/IoT_LINK/iot_link/oc/oc_lwm2m/boudica150_oc\boudica150_oc.c **** 
  37:C:/Users/Administrator/.iotlink/sdk/IoT_LINK/iot_link/oc/oc_lwm2m/boudica150_oc\boudica150_oc.c **** 
  38:C:/Users/Administrator/.iotlink/sdk/IoT_LINK/iot_link/oc/oc_lwm2m/boudica150_oc\boudica150_oc.c **** #include <string.h>
  39:C:/Users/Administrator/.iotlink/sdk/IoT_LINK/iot_link/oc/oc_lwm2m/boudica150_oc\boudica150_oc.c **** #include <at.h>
  40:C:/Users/Administrator/.iotlink/sdk/IoT_LINK/iot_link/oc/oc_lwm2m/boudica150_oc\boudica150_oc.c **** #include <boudica150_oc.h>
  41:C:/Users/Administrator/.iotlink/sdk/IoT_LINK/iot_link/oc/oc_lwm2m/boudica150_oc\boudica150_oc.c **** #include <oc_lwm2m_al.h>
  42:C:/Users/Administrator/.iotlink/sdk/IoT_LINK/iot_link/oc/oc_lwm2m/boudica150_oc\boudica150_oc.c **** #include <osal.h>
  43:C:/Users/Administrator/.iotlink/sdk/IoT_LINK/iot_link/oc/oc_lwm2m/boudica150_oc\boudica150_oc.c **** 
  44:C:/Users/Administrator/.iotlink/sdk/IoT_LINK/iot_link/oc/oc_lwm2m/boudica150_oc\boudica150_oc.c **** ///<  only support the bootstrap mode
  45:C:/Users/Administrator/.iotlink/sdk/IoT_LINK/iot_link/oc/oc_lwm2m/boudica150_oc\boudica150_oc.c **** 
  46:C:/Users/Administrator/.iotlink/sdk/IoT_LINK/iot_link/oc/oc_lwm2m/boudica150_oc\boudica150_oc.c **** #define cn_boudica150_cmd_timeout  (2*1000)
  47:C:/Users/Administrator/.iotlink/sdk/IoT_LINK/iot_link/oc/oc_lwm2m/boudica150_oc\boudica150_oc.c **** #define cn_boudica150_try_times    (32)
  48:C:/Users/Administrator/.iotlink/sdk/IoT_LINK/iot_link/oc/oc_lwm2m/boudica150_oc\boudica150_oc.c **** #define cn_boudica150_rcvindex     "\r\n+NNMI:"
  49:C:/Users/Administrator/.iotlink/sdk/IoT_LINK/iot_link/oc/oc_lwm2m/boudica150_oc\boudica150_oc.c **** #define cn_urc_qlwevtind           "\r\n+QLWEVTIND:"
  50:C:/Users/Administrator/.iotlink/sdk/IoT_LINK/iot_link/oc/oc_lwm2m/boudica150_oc\boudica150_oc.c **** #define cn_boudica150_cachelen     128
  51:C:/Users/Administrator/.iotlink/sdk/IoT_LINK/iot_link/oc/oc_lwm2m/boudica150_oc\boudica150_oc.c **** 
  52:C:/Users/Administrator/.iotlink/sdk/IoT_LINK/iot_link/oc/oc_lwm2m/boudica150_oc\boudica150_oc.c **** typedef struct
  53:C:/Users/Administrator/.iotlink/sdk/IoT_LINK/iot_link/oc/oc_lwm2m/boudica150_oc\boudica150_oc.c **** {
  54:C:/Users/Administrator/.iotlink/sdk/IoT_LINK/iot_link/oc/oc_lwm2m/boudica150_oc\boudica150_oc.c ****     //initialize by the NB module init
  55:C:/Users/Administrator/.iotlink/sdk/IoT_LINK/iot_link/oc/oc_lwm2m/boudica150_oc\boudica150_oc.c ****     const char *plmn;
  56:C:/Users/Administrator/.iotlink/sdk/IoT_LINK/iot_link/oc/oc_lwm2m/boudica150_oc\boudica150_oc.c ****     const char *apn;
  57:C:/Users/Administrator/.iotlink/sdk/IoT_LINK/iot_link/oc/oc_lwm2m/boudica150_oc\boudica150_oc.c ****     const char *bands;
  58:C:/Users/Administrator/.iotlink/sdk/IoT_LINK/iot_link/oc/oc_lwm2m/boudica150_oc\boudica150_oc.c **** 
  59:C:/Users/Administrator/.iotlink/sdk/IoT_LINK/iot_link/oc/oc_lwm2m/boudica150_oc\boudica150_oc.c ****     //initialized by the applicaiton
  60:C:/Users/Administrator/.iotlink/sdk/IoT_LINK/iot_link/oc/oc_lwm2m/boudica150_oc\boudica150_oc.c ****     oc_config_param_t  oc_param;
  61:C:/Users/Administrator/.iotlink/sdk/IoT_LINK/iot_link/oc/oc_lwm2m/boudica150_oc\boudica150_oc.c **** 
  62:C:/Users/Administrator/.iotlink/sdk/IoT_LINK/iot_link/oc/oc_lwm2m/boudica150_oc\boudica150_oc.c ****     //this is the control block
  63:C:/Users/Administrator/.iotlink/sdk/IoT_LINK/iot_link/oc/oc_lwm2m/boudica150_oc\boudica150_oc.c ****     bool_t            sndenable;
  64:C:/Users/Administrator/.iotlink/sdk/IoT_LINK/iot_link/oc/oc_lwm2m/boudica150_oc\boudica150_oc.c ****     unsigned char     sndbuf[cn_boudica150_cachelen];  //used for the receive
ARM GAS  C:\Users\ADMINI~1\AppData\Local\Temp\cctemkqi.s 			page 3


  65:C:/Users/Administrator/.iotlink/sdk/IoT_LINK/iot_link/oc/oc_lwm2m/boudica150_oc\boudica150_oc.c ****     unsigned char     rcvbuf[cn_boudica150_cachelen];
  66:C:/Users/Administrator/.iotlink/sdk/IoT_LINK/iot_link/oc/oc_lwm2m/boudica150_oc\boudica150_oc.c ****     //for the debug
  67:C:/Users/Administrator/.iotlink/sdk/IoT_LINK/iot_link/oc/oc_lwm2m/boudica150_oc\boudica150_oc.c ****     unsigned int   rcvlen;
  68:C:/Users/Administrator/.iotlink/sdk/IoT_LINK/iot_link/oc/oc_lwm2m/boudica150_oc\boudica150_oc.c ****     unsigned int   sndlen;
  69:C:/Users/Administrator/.iotlink/sdk/IoT_LINK/iot_link/oc/oc_lwm2m/boudica150_oc\boudica150_oc.c ****     //states for the lwm2m
  70:C:/Users/Administrator/.iotlink/sdk/IoT_LINK/iot_link/oc/oc_lwm2m/boudica150_oc\boudica150_oc.c ****     bool_t         lwm2m_observe;
  71:C:/Users/Administrator/.iotlink/sdk/IoT_LINK/iot_link/oc/oc_lwm2m/boudica150_oc\boudica150_oc.c **** 
  72:C:/Users/Administrator/.iotlink/sdk/IoT_LINK/iot_link/oc/oc_lwm2m/boudica150_oc\boudica150_oc.c **** }boudica150_cb_t;
  73:C:/Users/Administrator/.iotlink/sdk/IoT_LINK/iot_link/oc/oc_lwm2m/boudica150_oc\boudica150_oc.c **** static boudica150_cb_t   s_boudica150_oc_cb;
  74:C:/Users/Administrator/.iotlink/sdk/IoT_LINK/iot_link/oc/oc_lwm2m/boudica150_oc\boudica150_oc.c **** static osal_mutex_t s_report_mutex;
  75:C:/Users/Administrator/.iotlink/sdk/IoT_LINK/iot_link/oc/oc_lwm2m/boudica150_oc\boudica150_oc.c **** static void  *s_oc_handle = NULL;
  76:C:/Users/Administrator/.iotlink/sdk/IoT_LINK/iot_link/oc/oc_lwm2m/boudica150_oc\boudica150_oc.c **** 
  77:C:/Users/Administrator/.iotlink/sdk/IoT_LINK/iot_link/oc/oc_lwm2m/boudica150_oc\boudica150_oc.c **** int wireless_stats[4] = {0};
  78:C:/Users/Administrator/.iotlink/sdk/IoT_LINK/iot_link/oc/oc_lwm2m/boudica150_oc\boudica150_oc.c **** 
  79:C:/Users/Administrator/.iotlink/sdk/IoT_LINK/iot_link/oc/oc_lwm2m/boudica150_oc\boudica150_oc.c **** //bc95 common at command
  80:C:/Users/Administrator/.iotlink/sdk/IoT_LINK/iot_link/oc/oc_lwm2m/boudica150_oc\boudica150_oc.c **** static bool_t boudica150_atcmd(const char *cmd,const char *index)
  81:C:/Users/Administrator/.iotlink/sdk/IoT_LINK/iot_link/oc/oc_lwm2m/boudica150_oc\boudica150_oc.c **** {
  53              		.loc 1 81 1
  54              		.cfi_startproc
  55              		@ args = 0, pretend = 0, frame = 16
  56              		@ frame_needed = 1, uses_anonymous_args = 0
  57 0000 80B5     		push	{r7, lr}
  58              	.LCFI0:
  59              		.cfi_def_cfa_offset 8
  60              		.cfi_offset 7, -8
  61              		.cfi_offset 14, -4
  62 0002 86B0     		sub	sp, sp, #24
  63              	.LCFI1:
  64              		.cfi_def_cfa_offset 32
  65 0004 02AF     		add	r7, sp, #8
  66              	.LCFI2:
  67              		.cfi_def_cfa 7, 24
  68 0006 7860     		str	r0, [r7, #4]
  69 0008 3960     		str	r1, [r7]
  82:C:/Users/Administrator/.iotlink/sdk/IoT_LINK/iot_link/oc/oc_lwm2m/boudica150_oc\boudica150_oc.c ****     int ret = 0;
  70              		.loc 1 82 9
  71 000a 0023     		movs	r3, #0
  72 000c FB60     		str	r3, [r7, #12]
  83:C:/Users/Administrator/.iotlink/sdk/IoT_LINK/iot_link/oc/oc_lwm2m/boudica150_oc\boudica150_oc.c ****     ret = at_command((unsigned char *)cmd,strlen(cmd),index,NULL,0,cn_boudica150_cmd_timeout);
  73              		.loc 1 83 11
  74 000e 7868     		ldr	r0, [r7, #4]
  75 0010 FFF7FEFF 		bl	strlen
  76 0014 0146     		mov	r1, r0
  77 0016 4FF4FA63 		mov	r3, #2000
  78 001a 0193     		str	r3, [sp, #4]
  79 001c 0023     		movs	r3, #0
  80 001e 0093     		str	r3, [sp]
  81 0020 0023     		movs	r3, #0
  82 0022 3A68     		ldr	r2, [r7]
  83 0024 7868     		ldr	r0, [r7, #4]
  84 0026 FFF7FEFF 		bl	at_command
  85 002a F860     		str	r0, [r7, #12]
  84:C:/Users/Administrator/.iotlink/sdk/IoT_LINK/iot_link/oc/oc_lwm2m/boudica150_oc\boudica150_oc.c ****     if(ret >= 0)
  86              		.loc 1 84 7
  87 002c FB68     		ldr	r3, [r7, #12]
  88 002e 002B     		cmp	r3, #0
  89 0030 01DB     		blt	.L2
ARM GAS  C:\Users\ADMINI~1\AppData\Local\Temp\cctemkqi.s 			page 4


  85:C:/Users/Administrator/.iotlink/sdk/IoT_LINK/iot_link/oc/oc_lwm2m/boudica150_oc\boudica150_oc.c ****     {
  86:C:/Users/Administrator/.iotlink/sdk/IoT_LINK/iot_link/oc/oc_lwm2m/boudica150_oc\boudica150_oc.c ****         return true;
  90              		.loc 1 86 16
  91 0032 0123     		movs	r3, #1
  92 0034 00E0     		b	.L3
  93              	.L2:
  87:C:/Users/Administrator/.iotlink/sdk/IoT_LINK/iot_link/oc/oc_lwm2m/boudica150_oc\boudica150_oc.c ****     }
  88:C:/Users/Administrator/.iotlink/sdk/IoT_LINK/iot_link/oc/oc_lwm2m/boudica150_oc\boudica150_oc.c ****     else
  89:C:/Users/Administrator/.iotlink/sdk/IoT_LINK/iot_link/oc/oc_lwm2m/boudica150_oc\boudica150_oc.c ****     {
  90:C:/Users/Administrator/.iotlink/sdk/IoT_LINK/iot_link/oc/oc_lwm2m/boudica150_oc\boudica150_oc.c ****         return false;
  94              		.loc 1 90 16
  95 0036 0023     		movs	r3, #0
  96              	.L3:
  91:C:/Users/Administrator/.iotlink/sdk/IoT_LINK/iot_link/oc/oc_lwm2m/boudica150_oc\boudica150_oc.c ****     }
  92:C:/Users/Administrator/.iotlink/sdk/IoT_LINK/iot_link/oc/oc_lwm2m/boudica150_oc\boudica150_oc.c **** }
  97              		.loc 1 92 1
  98 0038 1846     		mov	r0, r3
  99 003a 1037     		adds	r7, r7, #16
 100              	.LCFI3:
 101              		.cfi_def_cfa_offset 8
 102 003c BD46     		mov	sp, r7
 103              	.LCFI4:
 104              		.cfi_def_cfa_register 13
 105              		@ sp needed
 106 003e 80BD     		pop	{r7, pc}
 107              		.cfi_endproc
 108              	.LFE3:
 110              		.section	.text.boudica150_atcmd_response,"ax",%progbits
 111              		.align	1
 112              		.syntax unified
 113              		.thumb
 114              		.thumb_func
 115              		.fpu fpv4-sp-d16
 117              	boudica150_atcmd_response:
 118              	.LFB4:
  93:C:/Users/Administrator/.iotlink/sdk/IoT_LINK/iot_link/oc/oc_lwm2m/boudica150_oc\boudica150_oc.c **** 
  94:C:/Users/Administrator/.iotlink/sdk/IoT_LINK/iot_link/oc/oc_lwm2m/boudica150_oc\boudica150_oc.c **** //nb command  with response
  95:C:/Users/Administrator/.iotlink/sdk/IoT_LINK/iot_link/oc/oc_lwm2m/boudica150_oc\boudica150_oc.c **** //bc95 common at command
  96:C:/Users/Administrator/.iotlink/sdk/IoT_LINK/iot_link/oc/oc_lwm2m/boudica150_oc\boudica150_oc.c **** static bool_t boudica150_atcmd_response(const char *cmd,const char *index,char *buf, int len)
  97:C:/Users/Administrator/.iotlink/sdk/IoT_LINK/iot_link/oc/oc_lwm2m/boudica150_oc\boudica150_oc.c **** {
 119              		.loc 1 97 1
 120              		.cfi_startproc
 121              		@ args = 0, pretend = 0, frame = 24
 122              		@ frame_needed = 1, uses_anonymous_args = 0
 123 0000 80B5     		push	{r7, lr}
 124              	.LCFI5:
 125              		.cfi_def_cfa_offset 8
 126              		.cfi_offset 7, -8
 127              		.cfi_offset 14, -4
 128 0002 88B0     		sub	sp, sp, #32
 129              	.LCFI6:
 130              		.cfi_def_cfa_offset 40
 131 0004 02AF     		add	r7, sp, #8
 132              	.LCFI7:
 133              		.cfi_def_cfa 7, 32
 134 0006 F860     		str	r0, [r7, #12]
 135 0008 B960     		str	r1, [r7, #8]
ARM GAS  C:\Users\ADMINI~1\AppData\Local\Temp\cctemkqi.s 			page 5


 136 000a 7A60     		str	r2, [r7, #4]
 137 000c 3B60     		str	r3, [r7]
  98:C:/Users/Administrator/.iotlink/sdk/IoT_LINK/iot_link/oc/oc_lwm2m/boudica150_oc\boudica150_oc.c ****     int ret = 0;
 138              		.loc 1 98 9
 139 000e 0023     		movs	r3, #0
 140 0010 7B61     		str	r3, [r7, #20]
  99:C:/Users/Administrator/.iotlink/sdk/IoT_LINK/iot_link/oc/oc_lwm2m/boudica150_oc\boudica150_oc.c ****     ret = at_command((unsigned char *)cmd,strlen(cmd),index,(char *)buf,len,cn_boudica150_cmd_timeo
 141              		.loc 1 99 11
 142 0012 F868     		ldr	r0, [r7, #12]
 143 0014 FFF7FEFF 		bl	strlen
 144 0018 0146     		mov	r1, r0
 145 001a 3B68     		ldr	r3, [r7]
 146 001c 4FF4FA62 		mov	r2, #2000
 147 0020 0192     		str	r2, [sp, #4]
 148 0022 0093     		str	r3, [sp]
 149 0024 7B68     		ldr	r3, [r7, #4]
 150 0026 BA68     		ldr	r2, [r7, #8]
 151 0028 F868     		ldr	r0, [r7, #12]
 152 002a FFF7FEFF 		bl	at_command
 153 002e 7861     		str	r0, [r7, #20]
 100:C:/Users/Administrator/.iotlink/sdk/IoT_LINK/iot_link/oc/oc_lwm2m/boudica150_oc\boudica150_oc.c ****     if(ret >= 0)
 154              		.loc 1 100 7
 155 0030 7B69     		ldr	r3, [r7, #20]
 156 0032 002B     		cmp	r3, #0
 157 0034 01DB     		blt	.L5
 101:C:/Users/Administrator/.iotlink/sdk/IoT_LINK/iot_link/oc/oc_lwm2m/boudica150_oc\boudica150_oc.c ****     {
 102:C:/Users/Administrator/.iotlink/sdk/IoT_LINK/iot_link/oc/oc_lwm2m/boudica150_oc\boudica150_oc.c ****         return true;
 158              		.loc 1 102 16
 159 0036 0123     		movs	r3, #1
 160 0038 00E0     		b	.L6
 161              	.L5:
 103:C:/Users/Administrator/.iotlink/sdk/IoT_LINK/iot_link/oc/oc_lwm2m/boudica150_oc\boudica150_oc.c ****     }
 104:C:/Users/Administrator/.iotlink/sdk/IoT_LINK/iot_link/oc/oc_lwm2m/boudica150_oc\boudica150_oc.c ****     else
 105:C:/Users/Administrator/.iotlink/sdk/IoT_LINK/iot_link/oc/oc_lwm2m/boudica150_oc\boudica150_oc.c ****     {
 106:C:/Users/Administrator/.iotlink/sdk/IoT_LINK/iot_link/oc/oc_lwm2m/boudica150_oc\boudica150_oc.c ****         return false;
 162              		.loc 1 106 16
 163 003a 0023     		movs	r3, #0
 164              	.L6:
 107:C:/Users/Administrator/.iotlink/sdk/IoT_LINK/iot_link/oc/oc_lwm2m/boudica150_oc\boudica150_oc.c ****     }
 108:C:/Users/Administrator/.iotlink/sdk/IoT_LINK/iot_link/oc/oc_lwm2m/boudica150_oc\boudica150_oc.c **** }
 165              		.loc 1 108 1
 166 003c 1846     		mov	r0, r3
 167 003e 1837     		adds	r7, r7, #24
 168              	.LCFI8:
 169              		.cfi_def_cfa_offset 8
 170 0040 BD46     		mov	sp, r7
 171              	.LCFI9:
 172              		.cfi_def_cfa_register 13
 173              		@ sp needed
 174 0042 80BD     		pop	{r7, pc}
 175              		.cfi_endproc
 176              	.LFE4:
 178              		.section	.rodata
 179              		.align	2
 180              	.LC0:
 181 0000 25303258 		.ascii	"%02X\000"
 181      00
ARM GAS  C:\Users\ADMINI~1\AppData\Local\Temp\cctemkqi.s 			page 6


 182              		.section	.text.byte_to_hexstr,"ax",%progbits
 183              		.align	1
 184              		.syntax unified
 185              		.thumb
 186              		.thumb_func
 187              		.fpu fpv4-sp-d16
 189              	byte_to_hexstr:
 190              	.LFB5:
 109:C:/Users/Administrator/.iotlink/sdk/IoT_LINK/iot_link/oc/oc_lwm2m/boudica150_oc\boudica150_oc.c **** 
 110:C:/Users/Administrator/.iotlink/sdk/IoT_LINK/iot_link/oc/oc_lwm2m/boudica150_oc\boudica150_oc.c **** 
 111:C:/Users/Administrator/.iotlink/sdk/IoT_LINK/iot_link/oc/oc_lwm2m/boudica150_oc\boudica150_oc.c **** 
 112:C:/Users/Administrator/.iotlink/sdk/IoT_LINK/iot_link/oc/oc_lwm2m/boudica150_oc\boudica150_oc.c **** //make a byte to 2 ascii hex
 113:C:/Users/Administrator/.iotlink/sdk/IoT_LINK/iot_link/oc/oc_lwm2m/boudica150_oc\boudica150_oc.c **** static int byte_to_hexstr(const unsigned char *bufin, int len, char *bufout)
 114:C:/Users/Administrator/.iotlink/sdk/IoT_LINK/iot_link/oc/oc_lwm2m/boudica150_oc\boudica150_oc.c **** {
 191              		.loc 1 114 1
 192              		.cfi_startproc
 193              		@ args = 0, pretend = 0, frame = 24
 194              		@ frame_needed = 1, uses_anonymous_args = 0
 195 0000 80B5     		push	{r7, lr}
 196              	.LCFI10:
 197              		.cfi_def_cfa_offset 8
 198              		.cfi_offset 7, -8
 199              		.cfi_offset 14, -4
 200 0002 86B0     		sub	sp, sp, #24
 201              	.LCFI11:
 202              		.cfi_def_cfa_offset 32
 203 0004 00AF     		add	r7, sp, #0
 204              	.LCFI12:
 205              		.cfi_def_cfa_register 7
 206 0006 F860     		str	r0, [r7, #12]
 207 0008 B960     		str	r1, [r7, #8]
 208 000a 7A60     		str	r2, [r7, #4]
 115:C:/Users/Administrator/.iotlink/sdk/IoT_LINK/iot_link/oc/oc_lwm2m/boudica150_oc\boudica150_oc.c ****     int i = 0;
 209              		.loc 1 115 9
 210 000c 0023     		movs	r3, #0
 211 000e 7B61     		str	r3, [r7, #20]
 116:C:/Users/Administrator/.iotlink/sdk/IoT_LINK/iot_link/oc/oc_lwm2m/boudica150_oc\boudica150_oc.c ****     if (NULL == bufin || len <= 0 || NULL == bufout)
 212              		.loc 1 116 8
 213 0010 FB68     		ldr	r3, [r7, #12]
 214 0012 002B     		cmp	r3, #0
 215 0014 05D0     		beq	.L8
 216              		.loc 1 116 23 discriminator 1
 217 0016 BB68     		ldr	r3, [r7, #8]
 218 0018 002B     		cmp	r3, #0
 219 001a 02DD     		ble	.L8
 220              		.loc 1 116 35 discriminator 2
 221 001c 7B68     		ldr	r3, [r7, #4]
 222 001e 002B     		cmp	r3, #0
 223 0020 02D1     		bne	.L9
 224              	.L8:
 117:C:/Users/Administrator/.iotlink/sdk/IoT_LINK/iot_link/oc/oc_lwm2m/boudica150_oc\boudica150_oc.c ****     {
 118:C:/Users/Administrator/.iotlink/sdk/IoT_LINK/iot_link/oc/oc_lwm2m/boudica150_oc\boudica150_oc.c ****         return -1;
 225              		.loc 1 118 16
 226 0022 4FF0FF33 		mov	r3, #-1
 227 0026 17E0     		b	.L10
 228              	.L9:
 119:C:/Users/Administrator/.iotlink/sdk/IoT_LINK/iot_link/oc/oc_lwm2m/boudica150_oc\boudica150_oc.c ****     }
ARM GAS  C:\Users\ADMINI~1\AppData\Local\Temp\cctemkqi.s 			page 7


 120:C:/Users/Administrator/.iotlink/sdk/IoT_LINK/iot_link/oc/oc_lwm2m/boudica150_oc\boudica150_oc.c ****     for(i = 0; i < len; i++)
 229              		.loc 1 120 11
 230 0028 0023     		movs	r3, #0
 231 002a 7B61     		str	r3, [r7, #20]
 232              		.loc 1 120 5
 233 002c 0FE0     		b	.L11
 234              	.L12:
 121:C:/Users/Administrator/.iotlink/sdk/IoT_LINK/iot_link/oc/oc_lwm2m/boudica150_oc\boudica150_oc.c ****     {
 122:C:/Users/Administrator/.iotlink/sdk/IoT_LINK/iot_link/oc/oc_lwm2m/boudica150_oc\boudica150_oc.c ****         (void) sprintf(bufout+i*2, "%02X", bufin[i]);
 235              		.loc 1 122 32 discriminator 3
 236 002e 7B69     		ldr	r3, [r7, #20]
 237 0030 5B00     		lsls	r3, r3, #1
 238 0032 1A46     		mov	r2, r3
 239              		.loc 1 122 16 discriminator 3
 240 0034 7B68     		ldr	r3, [r7, #4]
 241 0036 9818     		adds	r0, r3, r2
 242              		.loc 1 122 49 discriminator 3
 243 0038 7B69     		ldr	r3, [r7, #20]
 244 003a FA68     		ldr	r2, [r7, #12]
 245 003c 1344     		add	r3, r3, r2
 246 003e 1B78     		ldrb	r3, [r3]	@ zero_extendqisi2
 247              		.loc 1 122 16 discriminator 3
 248 0040 1A46     		mov	r2, r3
 249 0042 0749     		ldr	r1, .L13
 250 0044 FFF7FEFF 		bl	sprintf
 120:C:/Users/Administrator/.iotlink/sdk/IoT_LINK/iot_link/oc/oc_lwm2m/boudica150_oc\boudica150_oc.c ****     {
 251              		.loc 1 120 26 discriminator 3
 252 0048 7B69     		ldr	r3, [r7, #20]
 253 004a 0133     		adds	r3, r3, #1
 254 004c 7B61     		str	r3, [r7, #20]
 255              	.L11:
 120:C:/Users/Administrator/.iotlink/sdk/IoT_LINK/iot_link/oc/oc_lwm2m/boudica150_oc\boudica150_oc.c ****     {
 256              		.loc 1 120 5 discriminator 1
 257 004e 7A69     		ldr	r2, [r7, #20]
 258 0050 BB68     		ldr	r3, [r7, #8]
 259 0052 9A42     		cmp	r2, r3
 260 0054 EBDB     		blt	.L12
 123:C:/Users/Administrator/.iotlink/sdk/IoT_LINK/iot_link/oc/oc_lwm2m/boudica150_oc\boudica150_oc.c ****     }
 124:C:/Users/Administrator/.iotlink/sdk/IoT_LINK/iot_link/oc/oc_lwm2m/boudica150_oc\boudica150_oc.c ****     return 0;
 261              		.loc 1 124 12
 262 0056 0023     		movs	r3, #0
 263              	.L10:
 125:C:/Users/Administrator/.iotlink/sdk/IoT_LINK/iot_link/oc/oc_lwm2m/boudica150_oc\boudica150_oc.c **** }
 264              		.loc 1 125 1
 265 0058 1846     		mov	r0, r3
 266 005a 1837     		adds	r7, r7, #24
 267              	.LCFI13:
 268              		.cfi_def_cfa_offset 8
 269 005c BD46     		mov	sp, r7
 270              	.LCFI14:
 271              		.cfi_def_cfa_register 13
 272              		@ sp needed
 273 005e 80BD     		pop	{r7, pc}
 274              	.L14:
 275              		.align	2
 276              	.L13:
 277 0060 00000000 		.word	.LC0
ARM GAS  C:\Users\ADMINI~1\AppData\Local\Temp\cctemkqi.s 			page 8


 278              		.cfi_endproc
 279              	.LFE5:
 281              		.section	.rodata
 282 0005 000000   		.align	2
 283              	.LC1:
 284 0008 41542B4E 		.ascii	"AT+NMGS=\000"
 284      4D47533D 
 284      00
 285 0011 000000   		.align	2
 286              	.LC2:
 287 0014 4F4B00   		.ascii	"OK\000"
 288 0017 00       		.align	2
 289              	.LC3:
 290 0018 25732564 		.ascii	"%s%d,\000"
 290      2C00
 291              		.section	.text.boudica150_oc_report,"ax",%progbits
 292              		.align	1
 293              		.syntax unified
 294              		.thumb
 295              		.thumb_func
 296              		.fpu fpv4-sp-d16
 298              	boudica150_oc_report:
 299              	.LFB6:
 126:C:/Users/Administrator/.iotlink/sdk/IoT_LINK/iot_link/oc/oc_lwm2m/boudica150_oc\boudica150_oc.c **** 
 127:C:/Users/Administrator/.iotlink/sdk/IoT_LINK/iot_link/oc/oc_lwm2m/boudica150_oc\boudica150_oc.c **** 
 128:C:/Users/Administrator/.iotlink/sdk/IoT_LINK/iot_link/oc/oc_lwm2m/boudica150_oc\boudica150_oc.c **** static int boudica150_oc_report(unsigned char *buf,int len, int timeout)
 129:C:/Users/Administrator/.iotlink/sdk/IoT_LINK/iot_link/oc/oc_lwm2m/boudica150_oc\boudica150_oc.c **** {
 300              		.loc 1 129 1
 301              		.cfi_startproc
 302              		@ args = 0, pretend = 0, frame = 32
 303              		@ frame_needed = 1, uses_anonymous_args = 0
 304 0000 80B5     		push	{r7, lr}
 305              	.LCFI15:
 306              		.cfi_def_cfa_offset 8
 307              		.cfi_offset 7, -8
 308              		.cfi_offset 14, -4
 309 0002 8AB0     		sub	sp, sp, #40
 310              	.LCFI16:
 311              		.cfi_def_cfa_offset 48
 312 0004 02AF     		add	r7, sp, #8
 313              	.LCFI17:
 314              		.cfi_def_cfa 7, 40
 315 0006 F860     		str	r0, [r7, #12]
 316 0008 B960     		str	r1, [r7, #8]
 317 000a 7A60     		str	r2, [r7, #4]
 130:C:/Users/Administrator/.iotlink/sdk/IoT_LINK/iot_link/oc/oc_lwm2m/boudica150_oc\boudica150_oc.c ****     int ret = en_oc_lwm2m_err_noconfigured;
 318              		.loc 1 130 9
 319 000c 0423     		movs	r3, #4
 320 000e FB61     		str	r3, [r7, #28]
 131:C:/Users/Administrator/.iotlink/sdk/IoT_LINK/iot_link/oc/oc_lwm2m/boudica150_oc\boudica150_oc.c ****     const char *cmd = "AT+NMGS=";
 321              		.loc 1 131 17
 322 0010 304B     		ldr	r3, .L22
 323 0012 BB61     		str	r3, [r7, #24]
 132:C:/Users/Administrator/.iotlink/sdk/IoT_LINK/iot_link/oc/oc_lwm2m/boudica150_oc\boudica150_oc.c ****     const char *index = "OK";
 324              		.loc 1 132 17
 325 0014 304B     		ldr	r3, .L22+4
 326 0016 7B61     		str	r3, [r7, #20]
ARM GAS  C:\Users\ADMINI~1\AppData\Local\Temp\cctemkqi.s 			page 9


 133:C:/Users/Administrator/.iotlink/sdk/IoT_LINK/iot_link/oc/oc_lwm2m/boudica150_oc\boudica150_oc.c **** 
 134:C:/Users/Administrator/.iotlink/sdk/IoT_LINK/iot_link/oc/oc_lwm2m/boudica150_oc\boudica150_oc.c ****     if(NULL == s_oc_handle)
 327              		.loc 1 134 13
 328 0018 304B     		ldr	r3, .L22+8
 329 001a 1B68     		ldr	r3, [r3]
 330              		.loc 1 134 7
 331 001c 002B     		cmp	r3, #0
 332 001e 01D1     		bne	.L16
 135:C:/Users/Administrator/.iotlink/sdk/IoT_LINK/iot_link/oc/oc_lwm2m/boudica150_oc\boudica150_oc.c ****     {
 136:C:/Users/Administrator/.iotlink/sdk/IoT_LINK/iot_link/oc/oc_lwm2m/boudica150_oc\boudica150_oc.c ****         return ret;
 333              		.loc 1 136 16
 334 0020 FB69     		ldr	r3, [r7, #28]
 335 0022 52E0     		b	.L17
 336              	.L16:
 137:C:/Users/Administrator/.iotlink/sdk/IoT_LINK/iot_link/oc/oc_lwm2m/boudica150_oc\boudica150_oc.c ****     }
 138:C:/Users/Administrator/.iotlink/sdk/IoT_LINK/iot_link/oc/oc_lwm2m/boudica150_oc\boudica150_oc.c **** 
 139:C:/Users/Administrator/.iotlink/sdk/IoT_LINK/iot_link/oc/oc_lwm2m/boudica150_oc\boudica150_oc.c ****     if ((NULL == buf) || (len >= cn_boudica150_cachelen/2 )||(false == s_boudica150_oc_cb.sndenable
 337              		.loc 1 139 8
 338 0024 FB68     		ldr	r3, [r7, #12]
 339 0026 002B     		cmp	r3, #0
 340 0028 06D0     		beq	.L18
 341              		.loc 1 139 23 discriminator 1
 342 002a BB68     		ldr	r3, [r7, #8]
 343 002c 3F2B     		cmp	r3, #63
 344 002e 03DC     		bgt	.L18
 345              		.loc 1 139 90 discriminator 2
 346 0030 2B4B     		ldr	r3, .L22+12
 347 0032 9B6C     		ldr	r3, [r3, #72]
 348              		.loc 1 139 60 discriminator 2
 349 0034 002B     		cmp	r3, #0
 350 0036 03D1     		bne	.L19
 351              	.L18:
 140:C:/Users/Administrator/.iotlink/sdk/IoT_LINK/iot_link/oc/oc_lwm2m/boudica150_oc\boudica150_oc.c ****     {
 141:C:/Users/Administrator/.iotlink/sdk/IoT_LINK/iot_link/oc/oc_lwm2m/boudica150_oc\boudica150_oc.c ****         ret = en_oc_lwm2m_err_parafmt;
 352              		.loc 1 141 13
 353 0038 0123     		movs	r3, #1
 354 003a FB61     		str	r3, [r7, #28]
 142:C:/Users/Administrator/.iotlink/sdk/IoT_LINK/iot_link/oc/oc_lwm2m/boudica150_oc\boudica150_oc.c ****         return ret;
 355              		.loc 1 142 16
 356 003c FB69     		ldr	r3, [r7, #28]
 357 003e 44E0     		b	.L17
 358              	.L19:
 143:C:/Users/Administrator/.iotlink/sdk/IoT_LINK/iot_link/oc/oc_lwm2m/boudica150_oc\boudica150_oc.c ****     }
 144:C:/Users/Administrator/.iotlink/sdk/IoT_LINK/iot_link/oc/oc_lwm2m/boudica150_oc\boudica150_oc.c ****     osal_mutex_lock(s_report_mutex);
 359              		.loc 1 144 5
 360 0040 284B     		ldr	r3, .L22+16
 361 0042 1B68     		ldr	r3, [r3]
 362 0044 1846     		mov	r0, r3
 363 0046 FFF7FEFF 		bl	osal_mutex_lock
 145:C:/Users/Administrator/.iotlink/sdk/IoT_LINK/iot_link/oc/oc_lwm2m/boudica150_oc\boudica150_oc.c ****     (void) memset(s_boudica150_oc_cb.sndbuf, 0, cn_boudica150_cachelen);
 364              		.loc 1 145 12
 365 004a 8022     		movs	r2, #128
 366 004c 0021     		movs	r1, #0
 367 004e 2648     		ldr	r0, .L22+20
 368 0050 FFF7FEFF 		bl	memset
 146:C:/Users/Administrator/.iotlink/sdk/IoT_LINK/iot_link/oc/oc_lwm2m/boudica150_oc\boudica150_oc.c ****     (void) snprintf((char *)s_boudica150_oc_cb.sndbuf,cn_boudica150_cachelen,"%s%d,",cmd,len);
 369              		.loc 1 146 12
ARM GAS  C:\Users\ADMINI~1\AppData\Local\Temp\cctemkqi.s 			page 10


 370 0054 BB68     		ldr	r3, [r7, #8]
 371 0056 0093     		str	r3, [sp]
 372 0058 BB69     		ldr	r3, [r7, #24]
 373 005a 244A     		ldr	r2, .L22+24
 374 005c 8021     		movs	r1, #128
 375 005e 2248     		ldr	r0, .L22+20
 376 0060 FFF7FEFF 		bl	snprintf
 147:C:/Users/Administrator/.iotlink/sdk/IoT_LINK/iot_link/oc/oc_lwm2m/boudica150_oc\boudica150_oc.c ****     ret = byte_to_hexstr((unsigned char *)buf, len, (char *)&s_boudica150_oc_cb.sndbuf[strlen((char
 377              		.loc 1 147 88
 378 0064 2048     		ldr	r0, .L22+20
 379 0066 FFF7FEFF 		bl	strlen
 380 006a 0346     		mov	r3, r0
 381              		.loc 1 147 61
 382 006c 4833     		adds	r3, r3, #72
 383 006e 1C4A     		ldr	r2, .L22+12
 384 0070 1344     		add	r3, r3, r2
 385 0072 0433     		adds	r3, r3, #4
 386              		.loc 1 147 11
 387 0074 1A46     		mov	r2, r3
 388 0076 B968     		ldr	r1, [r7, #8]
 389 0078 F868     		ldr	r0, [r7, #12]
 390 007a FFF7FEFF 		bl	byte_to_hexstr
 391 007e F861     		str	r0, [r7, #28]
 148:C:/Users/Administrator/.iotlink/sdk/IoT_LINK/iot_link/oc/oc_lwm2m/boudica150_oc\boudica150_oc.c ****     s_boudica150_oc_cb.sndbuf[strlen((char *)s_boudica150_oc_cb.sndbuf)]='\r';
 392              		.loc 1 148 31
 393 0080 1948     		ldr	r0, .L22+20
 394 0082 FFF7FEFF 		bl	strlen
 395 0086 0346     		mov	r3, r0
 396              		.loc 1 148 73
 397 0088 154A     		ldr	r2, .L22+12
 398 008a 1344     		add	r3, r3, r2
 399 008c 0D22     		movs	r2, #13
 400 008e 83F84C20 		strb	r2, [r3, #76]
 149:C:/Users/Administrator/.iotlink/sdk/IoT_LINK/iot_link/oc/oc_lwm2m/boudica150_oc\boudica150_oc.c **** 
 150:C:/Users/Administrator/.iotlink/sdk/IoT_LINK/iot_link/oc/oc_lwm2m/boudica150_oc\boudica150_oc.c ****     ret = at_command((unsigned char *)s_boudica150_oc_cb.sndbuf,strlen((char *)s_boudica150_oc_cb.s
 401              		.loc 1 150 11
 402 0092 1548     		ldr	r0, .L22+20
 403 0094 FFF7FEFF 		bl	strlen
 404 0098 0146     		mov	r1, r0
 405 009a 7B68     		ldr	r3, [r7, #4]
 406 009c 0193     		str	r3, [sp, #4]
 407 009e 0023     		movs	r3, #0
 408 00a0 0093     		str	r3, [sp]
 409 00a2 0023     		movs	r3, #0
 410 00a4 7A69     		ldr	r2, [r7, #20]
 411 00a6 1048     		ldr	r0, .L22+20
 412 00a8 FFF7FEFF 		bl	at_command
 413 00ac F861     		str	r0, [r7, #28]
 151:C:/Users/Administrator/.iotlink/sdk/IoT_LINK/iot_link/oc/oc_lwm2m/boudica150_oc\boudica150_oc.c ****     (void) osal_mutex_unlock(s_report_mutex);
 414              		.loc 1 151 5
 415 00ae 0D4B     		ldr	r3, .L22+16
 416 00b0 1B68     		ldr	r3, [r3]
 417              		.loc 1 151 12
 418 00b2 1846     		mov	r0, r3
 419 00b4 FFF7FEFF 		bl	osal_mutex_unlock
 152:C:/Users/Administrator/.iotlink/sdk/IoT_LINK/iot_link/oc/oc_lwm2m/boudica150_oc\boudica150_oc.c ****     if(ret >= 0)
 420              		.loc 1 152 7
ARM GAS  C:\Users\ADMINI~1\AppData\Local\Temp\cctemkqi.s 			page 11


 421 00b8 FB69     		ldr	r3, [r7, #28]
 422 00ba 002B     		cmp	r3, #0
 423 00bc 02DB     		blt	.L20
 153:C:/Users/Administrator/.iotlink/sdk/IoT_LINK/iot_link/oc/oc_lwm2m/boudica150_oc\boudica150_oc.c ****     {
 154:C:/Users/Administrator/.iotlink/sdk/IoT_LINK/iot_link/oc/oc_lwm2m/boudica150_oc\boudica150_oc.c ****         ret = en_oc_lwm2m_err_ok;
 424              		.loc 1 154 13
 425 00be 0023     		movs	r3, #0
 426 00c0 FB61     		str	r3, [r7, #28]
 427 00c2 01E0     		b	.L21
 428              	.L20:
 155:C:/Users/Administrator/.iotlink/sdk/IoT_LINK/iot_link/oc/oc_lwm2m/boudica150_oc\boudica150_oc.c ****     }
 156:C:/Users/Administrator/.iotlink/sdk/IoT_LINK/iot_link/oc/oc_lwm2m/boudica150_oc\boudica150_oc.c ****     else
 157:C:/Users/Administrator/.iotlink/sdk/IoT_LINK/iot_link/oc/oc_lwm2m/boudica150_oc\boudica150_oc.c ****     {
 158:C:/Users/Administrator/.iotlink/sdk/IoT_LINK/iot_link/oc/oc_lwm2m/boudica150_oc\boudica150_oc.c ****         ret = en_oc_lwm2m_err_network;
 429              		.loc 1 158 13
 430 00c4 0223     		movs	r3, #2
 431 00c6 FB61     		str	r3, [r7, #28]
 432              	.L21:
 159:C:/Users/Administrator/.iotlink/sdk/IoT_LINK/iot_link/oc/oc_lwm2m/boudica150_oc\boudica150_oc.c ****     }
 160:C:/Users/Administrator/.iotlink/sdk/IoT_LINK/iot_link/oc/oc_lwm2m/boudica150_oc\boudica150_oc.c **** 
 161:C:/Users/Administrator/.iotlink/sdk/IoT_LINK/iot_link/oc/oc_lwm2m/boudica150_oc\boudica150_oc.c ****     return ret;
 433              		.loc 1 161 12
 434 00c8 FB69     		ldr	r3, [r7, #28]
 435              	.L17:
 162:C:/Users/Administrator/.iotlink/sdk/IoT_LINK/iot_link/oc/oc_lwm2m/boudica150_oc\boudica150_oc.c **** }
 436              		.loc 1 162 1
 437 00ca 1846     		mov	r0, r3
 438 00cc 2037     		adds	r7, r7, #32
 439              	.LCFI18:
 440              		.cfi_def_cfa_offset 8
 441 00ce BD46     		mov	sp, r7
 442              	.LCFI19:
 443              		.cfi_def_cfa_register 13
 444              		@ sp needed
 445 00d0 80BD     		pop	{r7, pc}
 446              	.L23:
 447 00d2 00BF     		.align	2
 448              	.L22:
 449 00d4 08000000 		.word	.LC1
 450 00d8 14000000 		.word	.LC2
 451 00dc 00000000 		.word	s_oc_handle
 452 00e0 00000000 		.word	s_boudica150_oc_cb
 453 00e4 00000000 		.word	s_report_mutex
 454 00e8 4C000000 		.word	s_boudica150_oc_cb+76
 455 00ec 18000000 		.word	.LC3
 456              		.cfi_endproc
 457              	.LFE6:
 459              		.section	.text.hexstr_to_byte,"ax",%progbits
 460              		.align	1
 461              		.syntax unified
 462              		.thumb
 463              		.thumb_func
 464              		.fpu fpv4-sp-d16
 466              	hexstr_to_byte:
 467              	.LFB7:
 163:C:/Users/Administrator/.iotlink/sdk/IoT_LINK/iot_link/oc/oc_lwm2m/boudica150_oc\boudica150_oc.c **** 
 164:C:/Users/Administrator/.iotlink/sdk/IoT_LINK/iot_link/oc/oc_lwm2m/boudica150_oc\boudica150_oc.c **** 
ARM GAS  C:\Users\ADMINI~1\AppData\Local\Temp\cctemkqi.s 			page 12


 165:C:/Users/Administrator/.iotlink/sdk/IoT_LINK/iot_link/oc/oc_lwm2m/boudica150_oc\boudica150_oc.c **** static int hexstr_to_byte(const char *bufin, int len, char *bufout)
 166:C:/Users/Administrator/.iotlink/sdk/IoT_LINK/iot_link/oc/oc_lwm2m/boudica150_oc\boudica150_oc.c **** {
 468              		.loc 1 166 1
 469              		.cfi_startproc
 470              		@ args = 0, pretend = 0, frame = 32
 471              		@ frame_needed = 1, uses_anonymous_args = 0
 472              		@ link register save eliminated.
 473 0000 80B4     		push	{r7}
 474              	.LCFI20:
 475              		.cfi_def_cfa_offset 4
 476              		.cfi_offset 7, -4
 477 0002 89B0     		sub	sp, sp, #36
 478              	.LCFI21:
 479              		.cfi_def_cfa_offset 40
 480 0004 00AF     		add	r7, sp, #0
 481              	.LCFI22:
 482              		.cfi_def_cfa_register 7
 483 0006 F860     		str	r0, [r7, #12]
 484 0008 B960     		str	r1, [r7, #8]
 485 000a 7A60     		str	r2, [r7, #4]
 167:C:/Users/Administrator/.iotlink/sdk/IoT_LINK/iot_link/oc/oc_lwm2m/boudica150_oc\boudica150_oc.c ****     int i = 0;
 486              		.loc 1 167 9
 487 000c 0023     		movs	r3, #0
 488 000e FB61     		str	r3, [r7, #28]
 168:C:/Users/Administrator/.iotlink/sdk/IoT_LINK/iot_link/oc/oc_lwm2m/boudica150_oc\boudica150_oc.c ****     unsigned char tmp2 = 0x0;
 489              		.loc 1 168 19
 490 0010 0023     		movs	r3, #0
 491 0012 FB76     		strb	r3, [r7, #27]
 169:C:/Users/Administrator/.iotlink/sdk/IoT_LINK/iot_link/oc/oc_lwm2m/boudica150_oc\boudica150_oc.c ****     unsigned int tmp = 0;
 492              		.loc 1 169 18
 493 0014 0023     		movs	r3, #0
 494 0016 7B61     		str	r3, [r7, #20]
 170:C:/Users/Administrator/.iotlink/sdk/IoT_LINK/iot_link/oc/oc_lwm2m/boudica150_oc\boudica150_oc.c ****     if (NULL == bufin || len <= 0 || NULL == bufout)
 495              		.loc 1 170 8
 496 0018 FB68     		ldr	r3, [r7, #12]
 497 001a 002B     		cmp	r3, #0
 498 001c 05D0     		beq	.L25
 499              		.loc 1 170 23 discriminator 1
 500 001e BB68     		ldr	r3, [r7, #8]
 501 0020 002B     		cmp	r3, #0
 502 0022 02DD     		ble	.L25
 503              		.loc 1 170 35 discriminator 2
 504 0024 7B68     		ldr	r3, [r7, #4]
 505 0026 002B     		cmp	r3, #0
 506 0028 02D1     		bne	.L26
 507              	.L25:
 171:C:/Users/Administrator/.iotlink/sdk/IoT_LINK/iot_link/oc/oc_lwm2m/boudica150_oc\boudica150_oc.c ****     {
 172:C:/Users/Administrator/.iotlink/sdk/IoT_LINK/iot_link/oc/oc_lwm2m/boudica150_oc\boudica150_oc.c ****         return -1;
 508              		.loc 1 172 16
 509 002a 4FF0FF33 		mov	r3, #-1
 510 002e 3BE0     		b	.L27
 511              	.L26:
 173:C:/Users/Administrator/.iotlink/sdk/IoT_LINK/iot_link/oc/oc_lwm2m/boudica150_oc\boudica150_oc.c ****     }
 174:C:/Users/Administrator/.iotlink/sdk/IoT_LINK/iot_link/oc/oc_lwm2m/boudica150_oc\boudica150_oc.c ****     for(i = 0; i < len; i = i+2)
 512              		.loc 1 174 11
 513 0030 0023     		movs	r3, #0
 514 0032 FB61     		str	r3, [r7, #28]
ARM GAS  C:\Users\ADMINI~1\AppData\Local\Temp\cctemkqi.s 			page 13


 515              		.loc 1 174 5
 516 0034 33E0     		b	.L28
 517              	.L33:
 175:C:/Users/Administrator/.iotlink/sdk/IoT_LINK/iot_link/oc/oc_lwm2m/boudica150_oc\boudica150_oc.c ****     {
 176:C:/Users/Administrator/.iotlink/sdk/IoT_LINK/iot_link/oc/oc_lwm2m/boudica150_oc\boudica150_oc.c ****         tmp2 =  bufin[i];
 518              		.loc 1 176 22
 519 0036 FB69     		ldr	r3, [r7, #28]
 520 0038 FA68     		ldr	r2, [r7, #12]
 521 003a 1344     		add	r3, r3, r2
 522              		.loc 1 176 14
 523 003c 1B78     		ldrb	r3, [r3]
 524 003e FB76     		strb	r3, [r7, #27]
 177:C:/Users/Administrator/.iotlink/sdk/IoT_LINK/iot_link/oc/oc_lwm2m/boudica150_oc\boudica150_oc.c ****         tmp2 =  tmp2 <= '9'?tmp2-0x30:tmp2-0x37;
 525              		.loc 1 177 14
 526 0040 FB7E     		ldrb	r3, [r7, #27]	@ zero_extendqisi2
 527 0042 392B     		cmp	r3, #57
 528 0044 03D8     		bhi	.L29
 529              		.loc 1 177 14 is_stmt 0 discriminator 1
 530 0046 FB7E     		ldrb	r3, [r7, #27]
 531 0048 303B     		subs	r3, r3, #48
 532 004a DBB2     		uxtb	r3, r3
 533 004c 02E0     		b	.L30
 534              	.L29:
 535              		.loc 1 177 14 discriminator 2
 536 004e FB7E     		ldrb	r3, [r7, #27]
 537 0050 373B     		subs	r3, r3, #55
 538 0052 DBB2     		uxtb	r3, r3
 539              	.L30:
 540              		.loc 1 177 14 discriminator 4
 541 0054 FB76     		strb	r3, [r7, #27]
 178:C:/Users/Administrator/.iotlink/sdk/IoT_LINK/iot_link/oc/oc_lwm2m/boudica150_oc\boudica150_oc.c ****         tmp =  bufin[i+1];
 542              		.loc 1 178 21 is_stmt 1 discriminator 4
 543 0056 FB69     		ldr	r3, [r7, #28]
 544 0058 0133     		adds	r3, r3, #1
 545 005a FA68     		ldr	r2, [r7, #12]
 546 005c 1344     		add	r3, r3, r2
 547 005e 1B78     		ldrb	r3, [r3]	@ zero_extendqisi2
 548              		.loc 1 178 13 discriminator 4
 549 0060 7B61     		str	r3, [r7, #20]
 179:C:/Users/Administrator/.iotlink/sdk/IoT_LINK/iot_link/oc/oc_lwm2m/boudica150_oc\boudica150_oc.c ****         tmp =  tmp <= '9'?tmp-0x30:tmp-0x37;
 550              		.loc 1 179 35 discriminator 4
 551 0062 7B69     		ldr	r3, [r7, #20]
 552 0064 392B     		cmp	r3, #57
 553 0066 02D8     		bhi	.L31
 554              		.loc 1 179 35 is_stmt 0 discriminator 1
 555 0068 7B69     		ldr	r3, [r7, #20]
 556 006a 303B     		subs	r3, r3, #48
 557 006c 01E0     		b	.L32
 558              	.L31:
 559              		.loc 1 179 35 discriminator 2
 560 006e 7B69     		ldr	r3, [r7, #20]
 561 0070 373B     		subs	r3, r3, #55
 562              	.L32:
 563              		.loc 1 179 13 is_stmt 1 discriminator 4
 564 0072 7B61     		str	r3, [r7, #20]
 180:C:/Users/Administrator/.iotlink/sdk/IoT_LINK/iot_link/oc/oc_lwm2m/boudica150_oc\boudica150_oc.c ****         bufout[i/2] =(tmp2<<4)|(tmp&0x0F);
 565              		.loc 1 180 27 discriminator 4
ARM GAS  C:\Users\ADMINI~1\AppData\Local\Temp\cctemkqi.s 			page 14


 566 0074 FB7E     		ldrb	r3, [r7, #27]
 567 0076 1B01     		lsls	r3, r3, #4
 568 0078 D9B2     		uxtb	r1, r3
 569              		.loc 1 180 36 discriminator 4
 570 007a 7B69     		ldr	r3, [r7, #20]
 571 007c DBB2     		uxtb	r3, r3
 572 007e 03F00F03 		and	r3, r3, #15
 573 0082 DAB2     		uxtb	r2, r3
 574              		.loc 1 180 17 discriminator 4
 575 0084 FB69     		ldr	r3, [r7, #28]
 576 0086 D80F     		lsrs	r0, r3, #31
 577 0088 0344     		add	r3, r3, r0
 578 008a 5B10     		asrs	r3, r3, #1
 579 008c 1846     		mov	r0, r3
 580              		.loc 1 180 15 discriminator 4
 581 008e 7B68     		ldr	r3, [r7, #4]
 582 0090 0344     		add	r3, r3, r0
 583              		.loc 1 180 31 discriminator 4
 584 0092 0A43     		orrs	r2, r2, r1
 585 0094 D2B2     		uxtb	r2, r2
 586              		.loc 1 180 21 discriminator 4
 587 0096 1A70     		strb	r2, [r3]
 174:C:/Users/Administrator/.iotlink/sdk/IoT_LINK/iot_link/oc/oc_lwm2m/boudica150_oc\boudica150_oc.c ****     {
 588              		.loc 1 174 27 discriminator 4
 589 0098 FB69     		ldr	r3, [r7, #28]
 590 009a 0233     		adds	r3, r3, #2
 591 009c FB61     		str	r3, [r7, #28]
 592              	.L28:
 174:C:/Users/Administrator/.iotlink/sdk/IoT_LINK/iot_link/oc/oc_lwm2m/boudica150_oc\boudica150_oc.c ****     {
 593              		.loc 1 174 5 discriminator 2
 594 009e FA69     		ldr	r2, [r7, #28]
 595 00a0 BB68     		ldr	r3, [r7, #8]
 596 00a2 9A42     		cmp	r2, r3
 597 00a4 C7DB     		blt	.L33
 181:C:/Users/Administrator/.iotlink/sdk/IoT_LINK/iot_link/oc/oc_lwm2m/boudica150_oc\boudica150_oc.c ****     }
 182:C:/Users/Administrator/.iotlink/sdk/IoT_LINK/iot_link/oc/oc_lwm2m/boudica150_oc\boudica150_oc.c ****     return 0;
 598              		.loc 1 182 12
 599 00a6 0023     		movs	r3, #0
 600              	.L27:
 183:C:/Users/Administrator/.iotlink/sdk/IoT_LINK/iot_link/oc/oc_lwm2m/boudica150_oc\boudica150_oc.c **** }
 601              		.loc 1 183 1
 602 00a8 1846     		mov	r0, r3
 603 00aa 2437     		adds	r7, r7, #36
 604              	.LCFI23:
 605              		.cfi_def_cfa_offset 4
 606 00ac BD46     		mov	sp, r7
 607              	.LCFI24:
 608              		.cfi_def_cfa_register 13
 609              		@ sp needed
 610 00ae 5DF8047B 		ldr	r7, [sp], #4
 611              	.LCFI25:
 612              		.cfi_restore 7
 613              		.cfi_def_cfa_offset 0
 614 00b2 7047     		bx	lr
 615              		.cfi_endproc
 616              	.LFE7:
 618              		.section	.rodata
ARM GAS  C:\Users\ADMINI~1\AppData\Local\Temp\cctemkqi.s 			page 15


 619 001e 0000     		.align	2
 620              	.LC4:
 621 0020 5B25735D 		.ascii	"[%s][%u][%s:%d] %s:invalid frame:%d byte:%s\012\015"
 621      5B25755D 
 621      5B25733A 
 621      25645D20 
 621      25733A69 
 622 004d 0D0A00   		.ascii	"\015\012\000"
 623              		.align	2
 624              	.LC5:
 625 0050 5B25735D 		.ascii	"[%s][%u][%s:%d] %s:format error\012\015\015\012\000"
 625      5B25755D 
 625      5B25733A 
 625      25645D20 
 625      25733A66 
 626              		.align	2
 627              	.LC6:
 628 0074 5B25735D 		.ascii	"[%s][%u][%s:%d] %s:implement error\012\015\015\012\000"
 628      5B25755D 
 628      5B25733A 
 628      25645D20 
 628      25733A69 
 629 009b 00       		.align	2
 630              	.LC7:
 631 009c 5B25735D 		.ascii	"[%s][%u][%s:%d] %s:frame over: frame:%d  cachelen:%"
 631      5B25755D 
 631      5B25733A 
 631      25645D20 
 631      25733A66 
 632 00cf 64200A0D 		.ascii	"d \012\015\015\012\000"
 632      0D0A00
 633              		.section	.text.boudica150_rcvdeal,"ax",%progbits
 634              		.align	1
 635              		.syntax unified
 636              		.thumb
 637              		.thumb_func
 638              		.fpu fpv4-sp-d16
 640              	boudica150_rcvdeal:
 641              	.LFB8:
 184:C:/Users/Administrator/.iotlink/sdk/IoT_LINK/iot_link/oc/oc_lwm2m/boudica150_oc\boudica150_oc.c **** 
 185:C:/Users/Administrator/.iotlink/sdk/IoT_LINK/iot_link/oc/oc_lwm2m/boudica150_oc\boudica150_oc.c **** static int boudica150_rcvdeal(void *args,void *msg,size_t len)
 186:C:/Users/Administrator/.iotlink/sdk/IoT_LINK/iot_link/oc/oc_lwm2m/boudica150_oc\boudica150_oc.c **** {
 642              		.loc 1 186 1
 643              		.cfi_startproc
 644              		@ args = 0, pretend = 0, frame = 32
 645              		@ frame_needed = 1, uses_anonymous_args = 0
 646 0000 90B5     		push	{r4, r7, lr}
 647              	.LCFI26:
 648              		.cfi_def_cfa_offset 12
 649              		.cfi_offset 4, -12
 650              		.cfi_offset 7, -8
 651              		.cfi_offset 14, -4
 652 0002 8DB0     		sub	sp, sp, #52
 653              	.LCFI27:
 654              		.cfi_def_cfa_offset 64
 655 0004 04AF     		add	r7, sp, #16
 656              	.LCFI28:
ARM GAS  C:\Users\ADMINI~1\AppData\Local\Temp\cctemkqi.s 			page 16


 657              		.cfi_def_cfa 7, 48
 658 0006 F860     		str	r0, [r7, #12]
 659 0008 B960     		str	r1, [r7, #8]
 660 000a 7A60     		str	r2, [r7, #4]
 187:C:/Users/Administrator/.iotlink/sdk/IoT_LINK/iot_link/oc/oc_lwm2m/boudica150_oc\boudica150_oc.c ****     int ret = 0;
 661              		.loc 1 187 9
 662 000c 0023     		movs	r3, #0
 663 000e 7B61     		str	r3, [r7, #20]
 188:C:/Users/Administrator/.iotlink/sdk/IoT_LINK/iot_link/oc/oc_lwm2m/boudica150_oc\boudica150_oc.c ****     int datalen;
 189:C:/Users/Administrator/.iotlink/sdk/IoT_LINK/iot_link/oc/oc_lwm2m/boudica150_oc\boudica150_oc.c ****     char *data;
 190:C:/Users/Administrator/.iotlink/sdk/IoT_LINK/iot_link/oc/oc_lwm2m/boudica150_oc\boudica150_oc.c ****     char  *str;
 191:C:/Users/Administrator/.iotlink/sdk/IoT_LINK/iot_link/oc/oc_lwm2m/boudica150_oc\boudica150_oc.c **** 
 192:C:/Users/Administrator/.iotlink/sdk/IoT_LINK/iot_link/oc/oc_lwm2m/boudica150_oc\boudica150_oc.c ****     data = msg;
 664              		.loc 1 192 10
 665 0010 BB68     		ldr	r3, [r7, #8]
 666 0012 3B61     		str	r3, [r7, #16]
 193:C:/Users/Administrator/.iotlink/sdk/IoT_LINK/iot_link/oc/oc_lwm2m/boudica150_oc\boudica150_oc.c ****     if(len <strlen(cn_boudica150_rcvindex))
 667              		.loc 1 193 7
 668 0014 7B68     		ldr	r3, [r7, #4]
 669 0016 072B     		cmp	r3, #7
 670 0018 1BD8     		bhi	.L35
 194:C:/Users/Administrator/.iotlink/sdk/IoT_LINK/iot_link/oc/oc_lwm2m/boudica150_oc\boudica150_oc.c ****     {
 195:C:/Users/Administrator/.iotlink/sdk/IoT_LINK/iot_link/oc/oc_lwm2m/boudica150_oc\boudica150_oc.c ****         LINK_LOG_DEBUG("%s:invalid frame:%d byte:%s\n\r",__FUNCTION__,len,(char *)data);
 671              		.loc 1 195 9
 672 001a FFF7FEFF 		bl	link_log_level_get
 673 001e 0346     		mov	r3, r0
 674 0020 012B     		cmp	r3, #1
 675 0022 14D8     		bhi	.L36
 676              		.loc 1 195 9 is_stmt 0 discriminator 1
 677 0024 0120     		movs	r0, #1
 678 0026 FFF7FEFF 		bl	link_log_level_name
 679 002a 0446     		mov	r4, r0
 680 002c FFF7FEFF 		bl	osal_sys_time
 681 0030 0246     		mov	r2, r0
 682 0032 0B46     		mov	r3, r1
 683 0034 3B69     		ldr	r3, [r7, #16]
 684 0036 0393     		str	r3, [sp, #12]
 685 0038 7B68     		ldr	r3, [r7, #4]
 686 003a 0293     		str	r3, [sp, #8]
 687 003c 544B     		ldr	r3, .L48
 688 003e 0193     		str	r3, [sp, #4]
 689 0040 C323     		movs	r3, #195
 690 0042 0093     		str	r3, [sp]
 691 0044 524B     		ldr	r3, .L48
 692 0046 2146     		mov	r1, r4
 693 0048 5248     		ldr	r0, .L48+4
 694 004a FFF7FEFF 		bl	printf
 695              	.L36:
 196:C:/Users/Administrator/.iotlink/sdk/IoT_LINK/iot_link/oc/oc_lwm2m/boudica150_oc\boudica150_oc.c ****         return ret;
 696              		.loc 1 196 16 is_stmt 1
 697 004e 7B69     		ldr	r3, [r7, #20]
 698 0050 99E0     		b	.L37
 699              	.L35:
 197:C:/Users/Administrator/.iotlink/sdk/IoT_LINK/iot_link/oc/oc_lwm2m/boudica150_oc\boudica150_oc.c ****     }
 198:C:/Users/Administrator/.iotlink/sdk/IoT_LINK/iot_link/oc/oc_lwm2m/boudica150_oc\boudica150_oc.c ****     //now deal the data
 199:C:/Users/Administrator/.iotlink/sdk/IoT_LINK/iot_link/oc/oc_lwm2m/boudica150_oc\boudica150_oc.c ****     str = strstr((char *)data,":");
 700              		.loc 1 199 11
ARM GAS  C:\Users\ADMINI~1\AppData\Local\Temp\cctemkqi.s 			page 17


 701 0052 3A21     		movs	r1, #58
 702 0054 3869     		ldr	r0, [r7, #16]
 703 0056 FFF7FEFF 		bl	strchr
 704 005a B861     		str	r0, [r7, #24]
 200:C:/Users/Administrator/.iotlink/sdk/IoT_LINK/iot_link/oc/oc_lwm2m/boudica150_oc\boudica150_oc.c ****     if(NULL == str)
 705              		.loc 1 200 7
 706 005c BB69     		ldr	r3, [r7, #24]
 707 005e 002B     		cmp	r3, #0
 708 0060 17D1     		bne	.L38
 201:C:/Users/Administrator/.iotlink/sdk/IoT_LINK/iot_link/oc/oc_lwm2m/boudica150_oc\boudica150_oc.c ****     {
 202:C:/Users/Administrator/.iotlink/sdk/IoT_LINK/iot_link/oc/oc_lwm2m/boudica150_oc\boudica150_oc.c ****         LINK_LOG_DEBUG("%s:format error\n\r",__FUNCTION__);
 709              		.loc 1 202 9
 710 0062 FFF7FEFF 		bl	link_log_level_get
 711 0066 0346     		mov	r3, r0
 712 0068 012B     		cmp	r3, #1
 713 006a 10D8     		bhi	.L39
 714              		.loc 1 202 9 is_stmt 0 discriminator 1
 715 006c 0120     		movs	r0, #1
 716 006e FFF7FEFF 		bl	link_log_level_name
 717 0072 0446     		mov	r4, r0
 718 0074 FFF7FEFF 		bl	osal_sys_time
 719 0078 0246     		mov	r2, r0
 720 007a 0B46     		mov	r3, r1
 721 007c 444B     		ldr	r3, .L48
 722 007e 0193     		str	r3, [sp, #4]
 723 0080 CA23     		movs	r3, #202
 724 0082 0093     		str	r3, [sp]
 725 0084 424B     		ldr	r3, .L48
 726 0086 2146     		mov	r1, r4
 727 0088 4348     		ldr	r0, .L48+8
 728 008a FFF7FEFF 		bl	printf
 729              	.L39:
 203:C:/Users/Administrator/.iotlink/sdk/IoT_LINK/iot_link/oc/oc_lwm2m/boudica150_oc\boudica150_oc.c ****         return ret; //format error
 730              		.loc 1 203 16 is_stmt 1
 731 008e 7B69     		ldr	r3, [r7, #20]
 732 0090 79E0     		b	.L37
 733              	.L38:
 204:C:/Users/Administrator/.iotlink/sdk/IoT_LINK/iot_link/oc/oc_lwm2m/boudica150_oc\boudica150_oc.c ****     }
 205:C:/Users/Administrator/.iotlink/sdk/IoT_LINK/iot_link/oc/oc_lwm2m/boudica150_oc\boudica150_oc.c ****     str++;
 734              		.loc 1 205 8
 735 0092 BB69     		ldr	r3, [r7, #24]
 736 0094 0133     		adds	r3, r3, #1
 737 0096 BB61     		str	r3, [r7, #24]
 206:C:/Users/Administrator/.iotlink/sdk/IoT_LINK/iot_link/oc/oc_lwm2m/boudica150_oc\boudica150_oc.c ****     datalen = 0;
 738              		.loc 1 206 13
 739 0098 0023     		movs	r3, #0
 740 009a FB61     		str	r3, [r7, #28]
 207:C:/Users/Administrator/.iotlink/sdk/IoT_LINK/iot_link/oc/oc_lwm2m/boudica150_oc\boudica150_oc.c ****     for (; *str <= '9' && *str >= '0' ;str++)
 741              		.loc 1 207 5
 742 009c 0DE0     		b	.L40
 743              	.L42:
 208:C:/Users/Administrator/.iotlink/sdk/IoT_LINK/iot_link/oc/oc_lwm2m/boudica150_oc\boudica150_oc.c ****     {
 209:C:/Users/Administrator/.iotlink/sdk/IoT_LINK/iot_link/oc/oc_lwm2m/boudica150_oc\boudica150_oc.c ****         datalen = (datalen * 10 + (*str - '0'));
 744              		.loc 1 209 28 discriminator 3
 745 009e FA69     		ldr	r2, [r7, #28]
 746 00a0 1346     		mov	r3, r2
 747 00a2 9B00     		lsls	r3, r3, #2
ARM GAS  C:\Users\ADMINI~1\AppData\Local\Temp\cctemkqi.s 			page 18


 748 00a4 1344     		add	r3, r3, r2
 749 00a6 5B00     		lsls	r3, r3, #1
 750 00a8 1A46     		mov	r2, r3
 751              		.loc 1 209 36 discriminator 3
 752 00aa BB69     		ldr	r3, [r7, #24]
 753 00ac 1B78     		ldrb	r3, [r3]	@ zero_extendqisi2
 754              		.loc 1 209 41 discriminator 3
 755 00ae 303B     		subs	r3, r3, #48
 756              		.loc 1 209 17 discriminator 3
 757 00b0 1344     		add	r3, r3, r2
 758 00b2 FB61     		str	r3, [r7, #28]
 207:C:/Users/Administrator/.iotlink/sdk/IoT_LINK/iot_link/oc/oc_lwm2m/boudica150_oc\boudica150_oc.c ****     for (; *str <= '9' && *str >= '0' ;str++)
 759              		.loc 1 207 43 discriminator 3
 760 00b4 BB69     		ldr	r3, [r7, #24]
 761 00b6 0133     		adds	r3, r3, #1
 762 00b8 BB61     		str	r3, [r7, #24]
 763              	.L40:
 207:C:/Users/Administrator/.iotlink/sdk/IoT_LINK/iot_link/oc/oc_lwm2m/boudica150_oc\boudica150_oc.c ****     for (; *str <= '9' && *str >= '0' ;str++)
 764              		.loc 1 207 12 discriminator 1
 765 00ba BB69     		ldr	r3, [r7, #24]
 766 00bc 1B78     		ldrb	r3, [r3]	@ zero_extendqisi2
 207:C:/Users/Administrator/.iotlink/sdk/IoT_LINK/iot_link/oc/oc_lwm2m/boudica150_oc\boudica150_oc.c ****     for (; *str <= '9' && *str >= '0' ;str++)
 767              		.loc 1 207 5 discriminator 1
 768 00be 392B     		cmp	r3, #57
 769 00c0 03D8     		bhi	.L41
 207:C:/Users/Administrator/.iotlink/sdk/IoT_LINK/iot_link/oc/oc_lwm2m/boudica150_oc\boudica150_oc.c ****     for (; *str <= '9' && *str >= '0' ;str++)
 770              		.loc 1 207 27 discriminator 2
 771 00c2 BB69     		ldr	r3, [r7, #24]
 772 00c4 1B78     		ldrb	r3, [r3]	@ zero_extendqisi2
 207:C:/Users/Administrator/.iotlink/sdk/IoT_LINK/iot_link/oc/oc_lwm2m/boudica150_oc\boudica150_oc.c ****     for (; *str <= '9' && *str >= '0' ;str++)
 773              		.loc 1 207 24 discriminator 2
 774 00c6 2F2B     		cmp	r3, #47
 775 00c8 E9D8     		bhi	.L42
 776              	.L41:
 210:C:/Users/Administrator/.iotlink/sdk/IoT_LINK/iot_link/oc/oc_lwm2m/boudica150_oc\boudica150_oc.c ****     }
 211:C:/Users/Administrator/.iotlink/sdk/IoT_LINK/iot_link/oc/oc_lwm2m/boudica150_oc\boudica150_oc.c ****     str++;
 777              		.loc 1 211 8
 778 00ca BB69     		ldr	r3, [r7, #24]
 779 00cc 0133     		adds	r3, r3, #1
 780 00ce BB61     		str	r3, [r7, #24]
 212:C:/Users/Administrator/.iotlink/sdk/IoT_LINK/iot_link/oc/oc_lwm2m/boudica150_oc\boudica150_oc.c ****     //now this is data of hex string
 213:C:/Users/Administrator/.iotlink/sdk/IoT_LINK/iot_link/oc/oc_lwm2m/boudica150_oc\boudica150_oc.c ****     if((unsigned int)(str + datalen*2 +2) > (unsigned int)(data + len))
 781              		.loc 1 213 36
 782 00d0 FB69     		ldr	r3, [r7, #28]
 783 00d2 5B00     		lsls	r3, r3, #1
 784              		.loc 1 213 39
 785 00d4 0233     		adds	r3, r3, #2
 786 00d6 BA69     		ldr	r2, [r7, #24]
 787 00d8 1344     		add	r3, r3, r2
 788              		.loc 1 213 8
 789 00da 1946     		mov	r1, r3
 790              		.loc 1 213 65
 791 00dc 3A69     		ldr	r2, [r7, #16]
 792 00de 7B68     		ldr	r3, [r7, #4]
 793 00e0 1344     		add	r3, r3, r2
 794              		.loc 1 213 7
 795 00e2 9942     		cmp	r1, r3
ARM GAS  C:\Users\ADMINI~1\AppData\Local\Temp\cctemkqi.s 			page 19


 796 00e4 17D9     		bls	.L43
 214:C:/Users/Administrator/.iotlink/sdk/IoT_LINK/iot_link/oc/oc_lwm2m/boudica150_oc\boudica150_oc.c ****     {
 215:C:/Users/Administrator/.iotlink/sdk/IoT_LINK/iot_link/oc/oc_lwm2m/boudica150_oc\boudica150_oc.c ****         LINK_LOG_DEBUG("%s:implement error\n\r",__FUNCTION__);
 797              		.loc 1 215 9
 798 00e6 FFF7FEFF 		bl	link_log_level_get
 799 00ea 0346     		mov	r3, r0
 800 00ec 012B     		cmp	r3, #1
 801 00ee 10D8     		bhi	.L44
 802              		.loc 1 215 9 is_stmt 0 discriminator 1
 803 00f0 0120     		movs	r0, #1
 804 00f2 FFF7FEFF 		bl	link_log_level_name
 805 00f6 0446     		mov	r4, r0
 806 00f8 FFF7FEFF 		bl	osal_sys_time
 807 00fc 0246     		mov	r2, r0
 808 00fe 0B46     		mov	r3, r1
 809 0100 234B     		ldr	r3, .L48
 810 0102 0193     		str	r3, [sp, #4]
 811 0104 D723     		movs	r3, #215
 812 0106 0093     		str	r3, [sp]
 813 0108 214B     		ldr	r3, .L48
 814 010a 2146     		mov	r1, r4
 815 010c 2348     		ldr	r0, .L48+12
 816 010e FFF7FEFF 		bl	printf
 817              	.L44:
 216:C:/Users/Administrator/.iotlink/sdk/IoT_LINK/iot_link/oc/oc_lwm2m/boudica150_oc\boudica150_oc.c ****         return ret; //
 818              		.loc 1 216 16 is_stmt 1
 819 0112 7B69     		ldr	r3, [r7, #20]
 820 0114 37E0     		b	.L37
 821              	.L43:
 217:C:/Users/Administrator/.iotlink/sdk/IoT_LINK/iot_link/oc/oc_lwm2m/boudica150_oc\boudica150_oc.c ****     }
 218:C:/Users/Administrator/.iotlink/sdk/IoT_LINK/iot_link/oc/oc_lwm2m/boudica150_oc\boudica150_oc.c ****     if(datalen > cn_boudica150_cachelen)
 822              		.loc 1 218 7
 823 0116 FB69     		ldr	r3, [r7, #28]
 824 0118 802B     		cmp	r3, #128
 825 011a 1BDD     		ble	.L45
 219:C:/Users/Administrator/.iotlink/sdk/IoT_LINK/iot_link/oc/oc_lwm2m/boudica150_oc\boudica150_oc.c ****     {
 220:C:/Users/Administrator/.iotlink/sdk/IoT_LINK/iot_link/oc/oc_lwm2m/boudica150_oc\boudica150_oc.c ****         LINK_LOG_DEBUG("%s:frame over: frame:%d  cachelen:%d \n\r",__FUNCTION__,datalen,cn_boudica1
 826              		.loc 1 220 9
 827 011c FFF7FEFF 		bl	link_log_level_get
 828 0120 0346     		mov	r3, r0
 829 0122 012B     		cmp	r3, #1
 830 0124 14D8     		bhi	.L46
 831              		.loc 1 220 9 is_stmt 0 discriminator 1
 832 0126 0120     		movs	r0, #1
 833 0128 FFF7FEFF 		bl	link_log_level_name
 834 012c 0446     		mov	r4, r0
 835 012e FFF7FEFF 		bl	osal_sys_time
 836 0132 0246     		mov	r2, r0
 837 0134 0B46     		mov	r3, r1
 838 0136 8023     		movs	r3, #128
 839 0138 0393     		str	r3, [sp, #12]
 840 013a FB69     		ldr	r3, [r7, #28]
 841 013c 0293     		str	r3, [sp, #8]
 842 013e 144B     		ldr	r3, .L48
 843 0140 0193     		str	r3, [sp, #4]
 844 0142 DC23     		movs	r3, #220
 845 0144 0093     		str	r3, [sp]
ARM GAS  C:\Users\ADMINI~1\AppData\Local\Temp\cctemkqi.s 			page 20


 846 0146 124B     		ldr	r3, .L48
 847 0148 2146     		mov	r1, r4
 848 014a 1548     		ldr	r0, .L48+16
 849 014c FFF7FEFF 		bl	printf
 850              	.L46:
 221:C:/Users/Administrator/.iotlink/sdk/IoT_LINK/iot_link/oc/oc_lwm2m/boudica150_oc\boudica150_oc.c ****         return ret; //
 851              		.loc 1 221 16 is_stmt 1
 852 0150 7B69     		ldr	r3, [r7, #20]
 853 0152 18E0     		b	.L37
 854              	.L45:
 222:C:/Users/Administrator/.iotlink/sdk/IoT_LINK/iot_link/oc/oc_lwm2m/boudica150_oc\boudica150_oc.c ****     }
 223:C:/Users/Administrator/.iotlink/sdk/IoT_LINK/iot_link/oc/oc_lwm2m/boudica150_oc\boudica150_oc.c ****     (void) memset(s_boudica150_oc_cb.rcvbuf,0,cn_boudica150_cachelen);
 855              		.loc 1 223 12
 856 0154 8022     		movs	r2, #128
 857 0156 0021     		movs	r1, #0
 858 0158 1248     		ldr	r0, .L48+20
 859 015a FFF7FEFF 		bl	memset
 224:C:/Users/Administrator/.iotlink/sdk/IoT_LINK/iot_link/oc/oc_lwm2m/boudica150_oc\boudica150_oc.c ****     hexstr_to_byte(str,datalen*2,(char *)s_boudica150_oc_cb.rcvbuf);
 860              		.loc 1 224 5
 861 015e FB69     		ldr	r3, [r7, #28]
 862 0160 5B00     		lsls	r3, r3, #1
 863 0162 104A     		ldr	r2, .L48+20
 864 0164 1946     		mov	r1, r3
 865 0166 B869     		ldr	r0, [r7, #24]
 866 0168 FFF7FEFF 		bl	hexstr_to_byte
 225:C:/Users/Administrator/.iotlink/sdk/IoT_LINK/iot_link/oc/oc_lwm2m/boudica150_oc\boudica150_oc.c **** 
 226:C:/Users/Administrator/.iotlink/sdk/IoT_LINK/iot_link/oc/oc_lwm2m/boudica150_oc\boudica150_oc.c ****     if(NULL != s_boudica150_oc_cb.oc_param.rcv_func)
 867              		.loc 1 226 43
 868 016c 0E4B     		ldr	r3, .L48+24
 869 016e 1B6C     		ldr	r3, [r3, #64]
 870              		.loc 1 226 7
 871 0170 002B     		cmp	r3, #0
 872 0172 07D0     		beq	.L47
 227:C:/Users/Administrator/.iotlink/sdk/IoT_LINK/iot_link/oc/oc_lwm2m/boudica150_oc\boudica150_oc.c ****     {
 228:C:/Users/Administrator/.iotlink/sdk/IoT_LINK/iot_link/oc/oc_lwm2m/boudica150_oc\boudica150_oc.c ****         s_boudica150_oc_cb.oc_param.rcv_func(s_boudica150_oc_cb.oc_param.usr_data,EN_OC_LWM2M_MSG_A
 873              		.loc 1 228 36
 874 0174 0C4B     		ldr	r3, .L48+24
 875 0176 1C6C     		ldr	r4, [r3, #64]
 876              		.loc 1 228 9
 877 0178 0B4B     		ldr	r3, .L48+24
 878 017a 586C     		ldr	r0, [r3, #68]
 879 017c FB69     		ldr	r3, [r7, #28]
 880 017e 094A     		ldr	r2, .L48+20
 881 0180 0021     		movs	r1, #0
 882 0182 A047     		blx	r4
 883              	.LVL0:
 884              	.L47:
 229:C:/Users/Administrator/.iotlink/sdk/IoT_LINK/iot_link/oc/oc_lwm2m/boudica150_oc\boudica150_oc.c ****                                              (char *)s_boudica150_oc_cb.rcvbuf,datalen);
 230:C:/Users/Administrator/.iotlink/sdk/IoT_LINK/iot_link/oc/oc_lwm2m/boudica150_oc\boudica150_oc.c ****     }
 231:C:/Users/Administrator/.iotlink/sdk/IoT_LINK/iot_link/oc/oc_lwm2m/boudica150_oc\boudica150_oc.c **** 
 232:C:/Users/Administrator/.iotlink/sdk/IoT_LINK/iot_link/oc/oc_lwm2m/boudica150_oc\boudica150_oc.c ****     return len;
 885              		.loc 1 232 12
 886 0184 7B68     		ldr	r3, [r7, #4]
 887              	.L37:
 233:C:/Users/Administrator/.iotlink/sdk/IoT_LINK/iot_link/oc/oc_lwm2m/boudica150_oc\boudica150_oc.c **** }
 888              		.loc 1 233 1
 889 0186 1846     		mov	r0, r3
ARM GAS  C:\Users\ADMINI~1\AppData\Local\Temp\cctemkqi.s 			page 21


 890 0188 2437     		adds	r7, r7, #36
 891              	.LCFI29:
 892              		.cfi_def_cfa_offset 12
 893 018a BD46     		mov	sp, r7
 894              	.LCFI30:
 895              		.cfi_def_cfa_register 13
 896              		@ sp needed
 897 018c 90BD     		pop	{r4, r7, pc}
 898              	.L49:
 899 018e 00BF     		.align	2
 900              	.L48:
 901 0190 00000000 		.word	__FUNCTION__.7087
 902 0194 20000000 		.word	.LC4
 903 0198 50000000 		.word	.LC5
 904 019c 74000000 		.word	.LC6
 905 01a0 9C000000 		.word	.LC7
 906 01a4 CC000000 		.word	s_boudica150_oc_cb+204
 907 01a8 00000000 		.word	s_boudica150_oc_cb
 908              		.cfi_endproc
 909              	.LFE8:
 911              		.section	.rodata
 912 00d6 0000     		.align	2
 913              	.LC8:
 914 00d8 41544525 		.ascii	"ATE%d\015\000"
 914      640D00
 915              		.section	.text.boudica150_set_echo,"ax",%progbits
 916              		.align	1
 917              		.syntax unified
 918              		.thumb
 919              		.thumb_func
 920              		.fpu fpv4-sp-d16
 922              	boudica150_set_echo:
 923              	.LFB9:
 234:C:/Users/Administrator/.iotlink/sdk/IoT_LINK/iot_link/oc/oc_lwm2m/boudica150_oc\boudica150_oc.c **** 
 235:C:/Users/Administrator/.iotlink/sdk/IoT_LINK/iot_link/oc/oc_lwm2m/boudica150_oc\boudica150_oc.c **** //enable the echooff
 236:C:/Users/Administrator/.iotlink/sdk/IoT_LINK/iot_link/oc/oc_lwm2m/boudica150_oc\boudica150_oc.c **** static bool_t boudica150_set_echo(int enable)
 237:C:/Users/Administrator/.iotlink/sdk/IoT_LINK/iot_link/oc/oc_lwm2m/boudica150_oc\boudica150_oc.c **** {
 924              		.loc 1 237 1
 925              		.cfi_startproc
 926              		@ args = 0, pretend = 0, frame = 80
 927              		@ frame_needed = 1, uses_anonymous_args = 0
 928 0000 80B5     		push	{r7, lr}
 929              	.LCFI31:
 930              		.cfi_def_cfa_offset 8
 931              		.cfi_offset 7, -8
 932              		.cfi_offset 14, -4
 933 0002 94B0     		sub	sp, sp, #80
 934              	.LCFI32:
 935              		.cfi_def_cfa_offset 88
 936 0004 00AF     		add	r7, sp, #0
 937              	.LCFI33:
 938              		.cfi_def_cfa_register 7
 939 0006 7860     		str	r0, [r7, #4]
 238:C:/Users/Administrator/.iotlink/sdk/IoT_LINK/iot_link/oc/oc_lwm2m/boudica150_oc\boudica150_oc.c ****     bool_t ret ;
 239:C:/Users/Administrator/.iotlink/sdk/IoT_LINK/iot_link/oc/oc_lwm2m/boudica150_oc\boudica150_oc.c ****     char cmd[64];
 240:C:/Users/Administrator/.iotlink/sdk/IoT_LINK/iot_link/oc/oc_lwm2m/boudica150_oc\boudica150_oc.c ****     (void) memset(cmd,0,64);
 940              		.loc 1 240 12
ARM GAS  C:\Users\ADMINI~1\AppData\Local\Temp\cctemkqi.s 			page 22


 941 0008 07F10C03 		add	r3, r7, #12
 942 000c 4022     		movs	r2, #64
 943 000e 0021     		movs	r1, #0
 944 0010 1846     		mov	r0, r3
 945 0012 FFF7FEFF 		bl	memset
 241:C:/Users/Administrator/.iotlink/sdk/IoT_LINK/iot_link/oc/oc_lwm2m/boudica150_oc\boudica150_oc.c ****     (void) snprintf(cmd,64,"ATE%d\r",enable);
 946              		.loc 1 241 12
 947 0016 07F10C00 		add	r0, r7, #12
 948 001a 7B68     		ldr	r3, [r7, #4]
 949 001c 074A     		ldr	r2, .L52
 950 001e 4021     		movs	r1, #64
 951 0020 FFF7FEFF 		bl	snprintf
 242:C:/Users/Administrator/.iotlink/sdk/IoT_LINK/iot_link/oc/oc_lwm2m/boudica150_oc\boudica150_oc.c **** 
 243:C:/Users/Administrator/.iotlink/sdk/IoT_LINK/iot_link/oc/oc_lwm2m/boudica150_oc\boudica150_oc.c ****     ret = boudica150_atcmd(cmd,"OK");
 952              		.loc 1 243 11
 953 0024 07F10C03 		add	r3, r7, #12
 954 0028 0549     		ldr	r1, .L52+4
 955 002a 1846     		mov	r0, r3
 956 002c FFF7FEFF 		bl	boudica150_atcmd
 957 0030 F864     		str	r0, [r7, #76]
 244:C:/Users/Administrator/.iotlink/sdk/IoT_LINK/iot_link/oc/oc_lwm2m/boudica150_oc\boudica150_oc.c **** 
 245:C:/Users/Administrator/.iotlink/sdk/IoT_LINK/iot_link/oc/oc_lwm2m/boudica150_oc\boudica150_oc.c ****     return ret;
 958              		.loc 1 245 12
 959 0032 FB6C     		ldr	r3, [r7, #76]
 246:C:/Users/Administrator/.iotlink/sdk/IoT_LINK/iot_link/oc/oc_lwm2m/boudica150_oc\boudica150_oc.c **** }
 960              		.loc 1 246 1
 961 0034 1846     		mov	r0, r3
 962 0036 5037     		adds	r7, r7, #80
 963              	.LCFI34:
 964              		.cfi_def_cfa_offset 8
 965 0038 BD46     		mov	sp, r7
 966              	.LCFI35:
 967              		.cfi_def_cfa_register 13
 968              		@ sp needed
 969 003a 80BD     		pop	{r7, pc}
 970              	.L53:
 971              		.align	2
 972              	.L52:
 973 003c D8000000 		.word	.LC8
 974 0040 14000000 		.word	.LC2
 975              		.cfi_endproc
 976              	.LFE9:
 978              		.section	.rodata
 979 00df 00       		.align	2
 980              	.LC9:
 981 00e0 41542B51 		.ascii	"AT+QREGSWT=%d\015\000"
 981      52454753 
 981      57543D25 
 981      640D00
 982              		.section	.text.boudica150_set_regmode,"ax",%progbits
 983              		.align	1
 984              		.syntax unified
 985              		.thumb
 986              		.thumb_func
 987              		.fpu fpv4-sp-d16
 989              	boudica150_set_regmode:
 990              	.LFB10:
ARM GAS  C:\Users\ADMINI~1\AppData\Local\Temp\cctemkqi.s 			page 23


 247:C:/Users/Administrator/.iotlink/sdk/IoT_LINK/iot_link/oc/oc_lwm2m/boudica150_oc\boudica150_oc.c **** 
 248:C:/Users/Administrator/.iotlink/sdk/IoT_LINK/iot_link/oc/oc_lwm2m/boudica150_oc\boudica150_oc.c **** static bool_t boudica150_set_regmode(int mode)
 249:C:/Users/Administrator/.iotlink/sdk/IoT_LINK/iot_link/oc/oc_lwm2m/boudica150_oc\boudica150_oc.c **** {
 991              		.loc 1 249 1
 992              		.cfi_startproc
 993              		@ args = 0, pretend = 0, frame = 80
 994              		@ frame_needed = 1, uses_anonymous_args = 0
 995 0000 80B5     		push	{r7, lr}
 996              	.LCFI36:
 997              		.cfi_def_cfa_offset 8
 998              		.cfi_offset 7, -8
 999              		.cfi_offset 14, -4
 1000 0002 94B0     		sub	sp, sp, #80
 1001              	.LCFI37:
 1002              		.cfi_def_cfa_offset 88
 1003 0004 00AF     		add	r7, sp, #0
 1004              	.LCFI38:
 1005              		.cfi_def_cfa_register 7
 1006 0006 7860     		str	r0, [r7, #4]
 250:C:/Users/Administrator/.iotlink/sdk/IoT_LINK/iot_link/oc/oc_lwm2m/boudica150_oc\boudica150_oc.c ****     bool_t ret ;
 251:C:/Users/Administrator/.iotlink/sdk/IoT_LINK/iot_link/oc/oc_lwm2m/boudica150_oc\boudica150_oc.c ****     char cmd[64];
 252:C:/Users/Administrator/.iotlink/sdk/IoT_LINK/iot_link/oc/oc_lwm2m/boudica150_oc\boudica150_oc.c ****     (void) memset(cmd,0,64);
 1007              		.loc 1 252 12
 1008 0008 07F10C03 		add	r3, r7, #12
 1009 000c 4022     		movs	r2, #64
 1010 000e 0021     		movs	r1, #0
 1011 0010 1846     		mov	r0, r3
 1012 0012 FFF7FEFF 		bl	memset
 253:C:/Users/Administrator/.iotlink/sdk/IoT_LINK/iot_link/oc/oc_lwm2m/boudica150_oc\boudica150_oc.c ****     (void) snprintf(cmd,64,"AT+QREGSWT=%d\r",mode);
 1013              		.loc 1 253 12
 1014 0016 07F10C00 		add	r0, r7, #12
 1015 001a 7B68     		ldr	r3, [r7, #4]
 1016 001c 074A     		ldr	r2, .L56
 1017 001e 4021     		movs	r1, #64
 1018 0020 FFF7FEFF 		bl	snprintf
 254:C:/Users/Administrator/.iotlink/sdk/IoT_LINK/iot_link/oc/oc_lwm2m/boudica150_oc\boudica150_oc.c **** 
 255:C:/Users/Administrator/.iotlink/sdk/IoT_LINK/iot_link/oc/oc_lwm2m/boudica150_oc\boudica150_oc.c ****     ret = boudica150_atcmd(cmd,"OK");
 1019              		.loc 1 255 11
 1020 0024 07F10C03 		add	r3, r7, #12
 1021 0028 0549     		ldr	r1, .L56+4
 1022 002a 1846     		mov	r0, r3
 1023 002c FFF7FEFF 		bl	boudica150_atcmd
 1024 0030 F864     		str	r0, [r7, #76]
 256:C:/Users/Administrator/.iotlink/sdk/IoT_LINK/iot_link/oc/oc_lwm2m/boudica150_oc\boudica150_oc.c **** 
 257:C:/Users/Administrator/.iotlink/sdk/IoT_LINK/iot_link/oc/oc_lwm2m/boudica150_oc\boudica150_oc.c ****     return ret;
 1025              		.loc 1 257 12
 1026 0032 FB6C     		ldr	r3, [r7, #76]
 258:C:/Users/Administrator/.iotlink/sdk/IoT_LINK/iot_link/oc/oc_lwm2m/boudica150_oc\boudica150_oc.c **** }
 1027              		.loc 1 258 1
 1028 0034 1846     		mov	r0, r3
 1029 0036 5037     		adds	r7, r7, #80
 1030              	.LCFI39:
 1031              		.cfi_def_cfa_offset 8
 1032 0038 BD46     		mov	sp, r7
 1033              	.LCFI40:
 1034              		.cfi_def_cfa_register 13
 1035              		@ sp needed
ARM GAS  C:\Users\ADMINI~1\AppData\Local\Temp\cctemkqi.s 			page 24


 1036 003a 80BD     		pop	{r7, pc}
 1037              	.L57:
 1038              		.align	2
 1039              	.L56:
 1040 003c E0000000 		.word	.LC9
 1041 0040 14000000 		.word	.LC2
 1042              		.cfi_endproc
 1043              	.LFE10:
 1045              		.section	.rodata
 1046 00ef 00       		.align	2
 1047              	.LC10:
 1048 00f0 5245424F 		.ascii	"REBOOTING\000"
 1048      4F54494E 
 1048      4700
 1049 00fa 0000     		.align	2
 1050              	.LC11:
 1051 00fc 41542B4E 		.ascii	"AT+NRB\015\000"
 1051      52420D00 
 1052              		.section	.text.boudica150_reboot,"ax",%progbits
 1053              		.align	1
 1054              		.syntax unified
 1055              		.thumb
 1056              		.thumb_func
 1057              		.fpu fpv4-sp-d16
 1059              	boudica150_reboot:
 1060              	.LFB11:
 259:C:/Users/Administrator/.iotlink/sdk/IoT_LINK/iot_link/oc/oc_lwm2m/boudica150_oc\boudica150_oc.c **** 
 260:C:/Users/Administrator/.iotlink/sdk/IoT_LINK/iot_link/oc/oc_lwm2m/boudica150_oc\boudica150_oc.c **** //use this function to do the module reboot
 261:C:/Users/Administrator/.iotlink/sdk/IoT_LINK/iot_link/oc/oc_lwm2m/boudica150_oc\boudica150_oc.c **** static bool_t boudica150_reboot(void)
 262:C:/Users/Administrator/.iotlink/sdk/IoT_LINK/iot_link/oc/oc_lwm2m/boudica150_oc\boudica150_oc.c **** {
 1061              		.loc 1 262 1
 1062              		.cfi_startproc
 1063              		@ args = 0, pretend = 0, frame = 0
 1064              		@ frame_needed = 1, uses_anonymous_args = 0
 1065 0000 80B5     		push	{r7, lr}
 1066              	.LCFI41:
 1067              		.cfi_def_cfa_offset 8
 1068              		.cfi_offset 7, -8
 1069              		.cfi_offset 14, -4
 1070 0002 00AF     		add	r7, sp, #0
 1071              	.LCFI42:
 1072              		.cfi_def_cfa_register 7
 263:C:/Users/Administrator/.iotlink/sdk/IoT_LINK/iot_link/oc/oc_lwm2m/boudica150_oc\boudica150_oc.c ****     //do the module reset
 264:C:/Users/Administrator/.iotlink/sdk/IoT_LINK/iot_link/oc/oc_lwm2m/boudica150_oc\boudica150_oc.c ****     boudica150_set_echo (0);
 1073              		.loc 1 264 5
 1074 0004 0020     		movs	r0, #0
 1075 0006 FFF7FEFF 		bl	boudica150_set_echo
 265:C:/Users/Administrator/.iotlink/sdk/IoT_LINK/iot_link/oc/oc_lwm2m/boudica150_oc\boudica150_oc.c ****     boudica150_set_echo (0);
 1076              		.loc 1 265 5
 1077 000a 0020     		movs	r0, #0
 1078 000c FFF7FEFF 		bl	boudica150_set_echo
 266:C:/Users/Administrator/.iotlink/sdk/IoT_LINK/iot_link/oc/oc_lwm2m/boudica150_oc\boudica150_oc.c **** 
 267:C:/Users/Administrator/.iotlink/sdk/IoT_LINK/iot_link/oc/oc_lwm2m/boudica150_oc\boudica150_oc.c ****     boudica150_atcmd("AT+NRB\r","REBOOTING");
 1079              		.loc 1 267 5
 1080 0010 0849     		ldr	r1, .L60
 1081 0012 0948     		ldr	r0, .L60+4
 1082 0014 FFF7FEFF 		bl	boudica150_atcmd
ARM GAS  C:\Users\ADMINI~1\AppData\Local\Temp\cctemkqi.s 			page 25


 268:C:/Users/Administrator/.iotlink/sdk/IoT_LINK/iot_link/oc/oc_lwm2m/boudica150_oc\boudica150_oc.c ****     osal_task_sleep(10000); //wait for the module boot
 1083              		.loc 1 268 5
 1084 0018 42F21070 		movw	r0, #10000
 1085 001c FFF7FEFF 		bl	osal_task_sleep
 269:C:/Users/Administrator/.iotlink/sdk/IoT_LINK/iot_link/oc/oc_lwm2m/boudica150_oc\boudica150_oc.c ****     //do the module reset
 270:C:/Users/Administrator/.iotlink/sdk/IoT_LINK/iot_link/oc/oc_lwm2m/boudica150_oc\boudica150_oc.c ****     boudica150_set_echo (0);
 1086              		.loc 1 270 5
 1087 0020 0020     		movs	r0, #0
 1088 0022 FFF7FEFF 		bl	boudica150_set_echo
 271:C:/Users/Administrator/.iotlink/sdk/IoT_LINK/iot_link/oc/oc_lwm2m/boudica150_oc\boudica150_oc.c ****     boudica150_set_echo (0);
 1089              		.loc 1 271 5
 1090 0026 0020     		movs	r0, #0
 1091 0028 FFF7FEFF 		bl	boudica150_set_echo
 272:C:/Users/Administrator/.iotlink/sdk/IoT_LINK/iot_link/oc/oc_lwm2m/boudica150_oc\boudica150_oc.c **** 
 273:C:/Users/Administrator/.iotlink/sdk/IoT_LINK/iot_link/oc/oc_lwm2m/boudica150_oc\boudica150_oc.c ****     return true;
 1092              		.loc 1 273 12
 1093 002c 0123     		movs	r3, #1
 274:C:/Users/Administrator/.iotlink/sdk/IoT_LINK/iot_link/oc/oc_lwm2m/boudica150_oc\boudica150_oc.c **** }
 1094              		.loc 1 274 1
 1095 002e 1846     		mov	r0, r3
 1096 0030 80BD     		pop	{r7, pc}
 1097              	.L61:
 1098 0032 00BF     		.align	2
 1099              	.L60:
 1100 0034 F0000000 		.word	.LC10
 1101 0038 FC000000 		.word	.LC11
 1102              		.cfi_endproc
 1103              	.LFE11:
 1105              		.section	.rodata
 1106              		.align	2
 1107              	.LC12:
 1108 0104 41542B43 		.ascii	"AT+CFUN=%d\015\000"
 1108      46554E3D 
 1108      25640D00 
 1109              		.section	.text.boudica150_set_fun,"ax",%progbits
 1110              		.align	1
 1111              		.syntax unified
 1112              		.thumb
 1113              		.thumb_func
 1114              		.fpu fpv4-sp-d16
 1116              	boudica150_set_fun:
 1117              	.LFB12:
 275:C:/Users/Administrator/.iotlink/sdk/IoT_LINK/iot_link/oc/oc_lwm2m/boudica150_oc\boudica150_oc.c **** 
 276:C:/Users/Administrator/.iotlink/sdk/IoT_LINK/iot_link/oc/oc_lwm2m/boudica150_oc\boudica150_oc.c **** //enable the cfun
 277:C:/Users/Administrator/.iotlink/sdk/IoT_LINK/iot_link/oc/oc_lwm2m/boudica150_oc\boudica150_oc.c **** static bool_t boudica150_set_fun(int enable)  //unit second
 278:C:/Users/Administrator/.iotlink/sdk/IoT_LINK/iot_link/oc/oc_lwm2m/boudica150_oc\boudica150_oc.c **** {
 1118              		.loc 1 278 1
 1119              		.cfi_startproc
 1120              		@ args = 0, pretend = 0, frame = 80
 1121              		@ frame_needed = 1, uses_anonymous_args = 0
 1122 0000 80B5     		push	{r7, lr}
 1123              	.LCFI43:
 1124              		.cfi_def_cfa_offset 8
 1125              		.cfi_offset 7, -8
 1126              		.cfi_offset 14, -4
 1127 0002 94B0     		sub	sp, sp, #80
 1128              	.LCFI44:
ARM GAS  C:\Users\ADMINI~1\AppData\Local\Temp\cctemkqi.s 			page 26


 1129              		.cfi_def_cfa_offset 88
 1130 0004 00AF     		add	r7, sp, #0
 1131              	.LCFI45:
 1132              		.cfi_def_cfa_register 7
 1133 0006 7860     		str	r0, [r7, #4]
 279:C:/Users/Administrator/.iotlink/sdk/IoT_LINK/iot_link/oc/oc_lwm2m/boudica150_oc\boudica150_oc.c ****     bool_t ret ;
 280:C:/Users/Administrator/.iotlink/sdk/IoT_LINK/iot_link/oc/oc_lwm2m/boudica150_oc\boudica150_oc.c ****     char cmd[64];
 281:C:/Users/Administrator/.iotlink/sdk/IoT_LINK/iot_link/oc/oc_lwm2m/boudica150_oc\boudica150_oc.c **** 
 282:C:/Users/Administrator/.iotlink/sdk/IoT_LINK/iot_link/oc/oc_lwm2m/boudica150_oc\boudica150_oc.c ****     (void) memset(cmd,0,64);
 1134              		.loc 1 282 12
 1135 0008 07F10C03 		add	r3, r7, #12
 1136 000c 4022     		movs	r2, #64
 1137 000e 0021     		movs	r1, #0
 1138 0010 1846     		mov	r0, r3
 1139 0012 FFF7FEFF 		bl	memset
 283:C:/Users/Administrator/.iotlink/sdk/IoT_LINK/iot_link/oc/oc_lwm2m/boudica150_oc\boudica150_oc.c ****     (void) snprintf(cmd,64,"AT+CFUN=%d\r",enable);
 1140              		.loc 1 283 12
 1141 0016 07F10C00 		add	r0, r7, #12
 1142 001a 7B68     		ldr	r3, [r7, #4]
 1143 001c 094A     		ldr	r2, .L64
 1144 001e 4021     		movs	r1, #64
 1145 0020 FFF7FEFF 		bl	snprintf
 284:C:/Users/Administrator/.iotlink/sdk/IoT_LINK/iot_link/oc/oc_lwm2m/boudica150_oc\boudica150_oc.c **** 
 285:C:/Users/Administrator/.iotlink/sdk/IoT_LINK/iot_link/oc/oc_lwm2m/boudica150_oc\boudica150_oc.c ****     ret = boudica150_atcmd(cmd,"OK");
 1146              		.loc 1 285 11
 1147 0024 07F10C03 		add	r3, r7, #12
 1148 0028 0749     		ldr	r1, .L64+4
 1149 002a 1846     		mov	r0, r3
 1150 002c FFF7FEFF 		bl	boudica150_atcmd
 1151 0030 F864     		str	r0, [r7, #76]
 286:C:/Users/Administrator/.iotlink/sdk/IoT_LINK/iot_link/oc/oc_lwm2m/boudica150_oc\boudica150_oc.c ****     //i think we should do some wait here
 287:C:/Users/Administrator/.iotlink/sdk/IoT_LINK/iot_link/oc/oc_lwm2m/boudica150_oc\boudica150_oc.c ****     osal_task_sleep(2000);
 1152              		.loc 1 287 5
 1153 0032 4FF4FA60 		mov	r0, #2000
 1154 0036 FFF7FEFF 		bl	osal_task_sleep
 288:C:/Users/Administrator/.iotlink/sdk/IoT_LINK/iot_link/oc/oc_lwm2m/boudica150_oc\boudica150_oc.c **** 
 289:C:/Users/Administrator/.iotlink/sdk/IoT_LINK/iot_link/oc/oc_lwm2m/boudica150_oc\boudica150_oc.c ****     return ret;
 1155              		.loc 1 289 12
 1156 003a FB6C     		ldr	r3, [r7, #76]
 290:C:/Users/Administrator/.iotlink/sdk/IoT_LINK/iot_link/oc/oc_lwm2m/boudica150_oc\boudica150_oc.c **** }
 1157              		.loc 1 290 1
 1158 003c 1846     		mov	r0, r3
 1159 003e 5037     		adds	r7, r7, #80
 1160              	.LCFI46:
 1161              		.cfi_def_cfa_offset 8
 1162 0040 BD46     		mov	sp, r7
 1163              	.LCFI47:
 1164              		.cfi_def_cfa_register 13
 1165              		@ sp needed
 1166 0042 80BD     		pop	{r7, pc}
 1167              	.L65:
 1168              		.align	2
 1169              	.L64:
 1170 0044 04010000 		.word	.LC12
 1171 0048 14000000 		.word	.LC2
 1172              		.cfi_endproc
 1173              	.LFE12:
ARM GAS  C:\Users\ADMINI~1\AppData\Local\Temp\cctemkqi.s 			page 27


 1175              		.section	.rodata
 1176              		.align	2
 1177              	.LC13:
 1178 0110 41542B4E 		.ascii	"AT+NBAND?\015\000"
 1178      42414E44 
 1178      3F0D00
 1179 011b 00       		.align	2
 1180              	.LC14:
 1181 011c 2B4E4241 		.ascii	"+NBAND:%s\015\000"
 1181      4E443A25 
 1181      730D00
 1182 0127 00       		.align	2
 1183              	.LC15:
 1184 0128 41542B4E 		.ascii	"AT+NBAND=%s\015\000"
 1184      42414E44 
 1184      3D25730D 
 1184      00
 1185              		.section	.text.boudica150_set_bands,"ax",%progbits
 1186              		.align	1
 1187              		.syntax unified
 1188              		.thumb
 1189              		.thumb_func
 1190              		.fpu fpv4-sp-d16
 1192              	boudica150_set_bands:
 1193              	.LFB13:
 291:C:/Users/Administrator/.iotlink/sdk/IoT_LINK/iot_link/oc/oc_lwm2m/boudica150_oc\boudica150_oc.c **** 
 292:C:/Users/Administrator/.iotlink/sdk/IoT_LINK/iot_link/oc/oc_lwm2m/boudica150_oc\boudica150_oc.c **** //use this function to set the band
 293:C:/Users/Administrator/.iotlink/sdk/IoT_LINK/iot_link/oc/oc_lwm2m/boudica150_oc\boudica150_oc.c **** static bool_t boudica150_set_bands(const char *bands)
 294:C:/Users/Administrator/.iotlink/sdk/IoT_LINK/iot_link/oc/oc_lwm2m/boudica150_oc\boudica150_oc.c **** {
 1194              		.loc 1 294 1
 1195              		.cfi_startproc
 1196              		@ args = 0, pretend = 0, frame = 144
 1197              		@ frame_needed = 1, uses_anonymous_args = 0
 1198 0000 80B5     		push	{r7, lr}
 1199              	.LCFI48:
 1200              		.cfi_def_cfa_offset 8
 1201              		.cfi_offset 7, -8
 1202              		.cfi_offset 14, -4
 1203 0002 A4B0     		sub	sp, sp, #144
 1204              	.LCFI49:
 1205              		.cfi_def_cfa_offset 152
 1206 0004 00AF     		add	r7, sp, #0
 1207              	.LCFI50:
 1208              		.cfi_def_cfa_register 7
 1209 0006 7860     		str	r0, [r7, #4]
 295:C:/Users/Administrator/.iotlink/sdk/IoT_LINK/iot_link/oc/oc_lwm2m/boudica150_oc\boudica150_oc.c ****     char cmd[64];
 296:C:/Users/Administrator/.iotlink/sdk/IoT_LINK/iot_link/oc/oc_lwm2m/boudica150_oc\boudica150_oc.c ****     char resp[64];
 297:C:/Users/Administrator/.iotlink/sdk/IoT_LINK/iot_link/oc/oc_lwm2m/boudica150_oc\boudica150_oc.c ****     bool_t ret = true;
 1210              		.loc 1 297 12
 1211 0008 0123     		movs	r3, #1
 1212 000a C7F88C30 		str	r3, [r7, #140]
 298:C:/Users/Administrator/.iotlink/sdk/IoT_LINK/iot_link/oc/oc_lwm2m/boudica150_oc\boudica150_oc.c **** 
 299:C:/Users/Administrator/.iotlink/sdk/IoT_LINK/iot_link/oc/oc_lwm2m/boudica150_oc\boudica150_oc.c ****     if(NULL != bands)  //which means we need to set if the default is not the same
 1213              		.loc 1 299 7
 1214 000e 7B68     		ldr	r3, [r7, #4]
 1215 0010 002B     		cmp	r3, #0
 1216 0012 4CD0     		beq	.L67
ARM GAS  C:\Users\ADMINI~1\AppData\Local\Temp\cctemkqi.s 			page 28


 300:C:/Users/Administrator/.iotlink/sdk/IoT_LINK/iot_link/oc/oc_lwm2m/boudica150_oc\boudica150_oc.c ****     {
 301:C:/Users/Administrator/.iotlink/sdk/IoT_LINK/iot_link/oc/oc_lwm2m/boudica150_oc\boudica150_oc.c ****         (void) memset(resp,0,64);
 1217              		.loc 1 301 16
 1218 0014 07F10C03 		add	r3, r7, #12
 1219 0018 4022     		movs	r2, #64
 1220 001a 0021     		movs	r1, #0
 1221 001c 1846     		mov	r0, r3
 1222 001e FFF7FEFF 		bl	memset
 302:C:/Users/Administrator/.iotlink/sdk/IoT_LINK/iot_link/oc/oc_lwm2m/boudica150_oc\boudica150_oc.c ****         ret = boudica150_atcmd_response("AT+NBAND?\r","OK",resp,64);
 1223              		.loc 1 302 15
 1224 0022 07F10C02 		add	r2, r7, #12
 1225 0026 4023     		movs	r3, #64
 1226 0028 2449     		ldr	r1, .L71
 1227 002a 2548     		ldr	r0, .L71+4
 1228 002c FFF7FEFF 		bl	boudica150_atcmd_response
 1229 0030 C7F88C00 		str	r0, [r7, #140]
 303:C:/Users/Administrator/.iotlink/sdk/IoT_LINK/iot_link/oc/oc_lwm2m/boudica150_oc\boudica150_oc.c **** 
 304:C:/Users/Administrator/.iotlink/sdk/IoT_LINK/iot_link/oc/oc_lwm2m/boudica150_oc\boudica150_oc.c ****         (void) memset(cmd,0,64);
 1230              		.loc 1 304 16
 1231 0034 07F14C03 		add	r3, r7, #76
 1232 0038 4022     		movs	r2, #64
 1233 003a 0021     		movs	r1, #0
 1234 003c 1846     		mov	r0, r3
 1235 003e FFF7FEFF 		bl	memset
 305:C:/Users/Administrator/.iotlink/sdk/IoT_LINK/iot_link/oc/oc_lwm2m/boudica150_oc\boudica150_oc.c ****         (void) snprintf(cmd,63,"+NBAND:%s\r",bands);
 1236              		.loc 1 305 16
 1237 0042 07F14C00 		add	r0, r7, #76
 1238 0046 7B68     		ldr	r3, [r7, #4]
 1239 0048 1E4A     		ldr	r2, .L71+8
 1240 004a 3F21     		movs	r1, #63
 1241 004c FFF7FEFF 		bl	snprintf
 306:C:/Users/Administrator/.iotlink/sdk/IoT_LINK/iot_link/oc/oc_lwm2m/boudica150_oc\boudica150_oc.c **** 
 307:C:/Users/Administrator/.iotlink/sdk/IoT_LINK/iot_link/oc/oc_lwm2m/boudica150_oc\boudica150_oc.c ****         if((false == ret)||(NULL == strstr(resp,cmd)))//which means we need to set it
 1242              		.loc 1 307 11
 1243 0050 D7F88C30 		ldr	r3, [r7, #140]
 1244 0054 002B     		cmp	r3, #0
 1245 0056 0AD0     		beq	.L68
 1246              		.loc 1 307 37 discriminator 1
 1247 0058 07F14C02 		add	r2, r7, #76
 1248 005c 07F10C03 		add	r3, r7, #12
 1249 0060 1146     		mov	r1, r2
 1250 0062 1846     		mov	r0, r3
 1251 0064 FFF7FEFF 		bl	strstr
 1252 0068 0346     		mov	r3, r0
 1253              		.loc 1 307 26 discriminator 1
 1254 006a 002B     		cmp	r3, #0
 1255 006c 1CD1     		bne	.L69
 1256              	.L68:
 308:C:/Users/Administrator/.iotlink/sdk/IoT_LINK/iot_link/oc/oc_lwm2m/boudica150_oc\boudica150_oc.c ****         {
 309:C:/Users/Administrator/.iotlink/sdk/IoT_LINK/iot_link/oc/oc_lwm2m/boudica150_oc\boudica150_oc.c ****             boudica150_set_fun(0);
 1257              		.loc 1 309 13
 1258 006e 0020     		movs	r0, #0
 1259 0070 FFF7FEFF 		bl	boudica150_set_fun
 310:C:/Users/Administrator/.iotlink/sdk/IoT_LINK/iot_link/oc/oc_lwm2m/boudica150_oc\boudica150_oc.c **** 
 311:C:/Users/Administrator/.iotlink/sdk/IoT_LINK/iot_link/oc/oc_lwm2m/boudica150_oc\boudica150_oc.c ****             (void) memset(cmd,0,64);
 1260              		.loc 1 311 20
 1261 0074 07F14C03 		add	r3, r7, #76
ARM GAS  C:\Users\ADMINI~1\AppData\Local\Temp\cctemkqi.s 			page 29


 1262 0078 4022     		movs	r2, #64
 1263 007a 0021     		movs	r1, #0
 1264 007c 1846     		mov	r0, r3
 1265 007e FFF7FEFF 		bl	memset
 312:C:/Users/Administrator/.iotlink/sdk/IoT_LINK/iot_link/oc/oc_lwm2m/boudica150_oc\boudica150_oc.c ****             (void) snprintf(cmd,63,"AT+NBAND=%s\r",bands);
 1266              		.loc 1 312 20
 1267 0082 07F14C00 		add	r0, r7, #76
 1268 0086 7B68     		ldr	r3, [r7, #4]
 1269 0088 0F4A     		ldr	r2, .L71+12
 1270 008a 3F21     		movs	r1, #63
 1271 008c FFF7FEFF 		bl	snprintf
 313:C:/Users/Administrator/.iotlink/sdk/IoT_LINK/iot_link/oc/oc_lwm2m/boudica150_oc\boudica150_oc.c ****             ret = boudica150_atcmd(cmd,"OK");
 1272              		.loc 1 313 19
 1273 0090 07F14C03 		add	r3, r7, #76
 1274 0094 0949     		ldr	r1, .L71
 1275 0096 1846     		mov	r0, r3
 1276 0098 FFF7FEFF 		bl	boudica150_atcmd
 1277 009c C7F88C00 		str	r0, [r7, #140]
 314:C:/Users/Administrator/.iotlink/sdk/IoT_LINK/iot_link/oc/oc_lwm2m/boudica150_oc\boudica150_oc.c **** 
 315:C:/Users/Administrator/.iotlink/sdk/IoT_LINK/iot_link/oc/oc_lwm2m/boudica150_oc\boudica150_oc.c ****             boudica150_set_fun(1);
 1278              		.loc 1 315 13
 1279 00a0 0120     		movs	r0, #1
 1280 00a2 FFF7FEFF 		bl	boudica150_set_fun
 1281 00a6 02E0     		b	.L67
 1282              	.L69:
 316:C:/Users/Administrator/.iotlink/sdk/IoT_LINK/iot_link/oc/oc_lwm2m/boudica150_oc\boudica150_oc.c ****         }
 317:C:/Users/Administrator/.iotlink/sdk/IoT_LINK/iot_link/oc/oc_lwm2m/boudica150_oc\boudica150_oc.c ****         else
 318:C:/Users/Administrator/.iotlink/sdk/IoT_LINK/iot_link/oc/oc_lwm2m/boudica150_oc\boudica150_oc.c ****         {
 319:C:/Users/Administrator/.iotlink/sdk/IoT_LINK/iot_link/oc/oc_lwm2m/boudica150_oc\boudica150_oc.c ****             ret = true;  //we need not to set
 1283              		.loc 1 319 17
 1284 00a8 0123     		movs	r3, #1
 1285 00aa C7F88C30 		str	r3, [r7, #140]
 1286              	.L67:
 320:C:/Users/Administrator/.iotlink/sdk/IoT_LINK/iot_link/oc/oc_lwm2m/boudica150_oc\boudica150_oc.c ****         }
 321:C:/Users/Administrator/.iotlink/sdk/IoT_LINK/iot_link/oc/oc_lwm2m/boudica150_oc\boudica150_oc.c ****     }
 322:C:/Users/Administrator/.iotlink/sdk/IoT_LINK/iot_link/oc/oc_lwm2m/boudica150_oc\boudica150_oc.c ****     return ret;
 1287              		.loc 1 322 12
 1288 00ae D7F88C30 		ldr	r3, [r7, #140]
 323:C:/Users/Administrator/.iotlink/sdk/IoT_LINK/iot_link/oc/oc_lwm2m/boudica150_oc\boudica150_oc.c **** }
 1289              		.loc 1 323 1
 1290 00b2 1846     		mov	r0, r3
 1291 00b4 9037     		adds	r7, r7, #144
 1292              	.LCFI51:
 1293              		.cfi_def_cfa_offset 8
 1294 00b6 BD46     		mov	sp, r7
 1295              	.LCFI52:
 1296              		.cfi_def_cfa_register 13
 1297              		@ sp needed
 1298 00b8 80BD     		pop	{r7, pc}
 1299              	.L72:
 1300 00ba 00BF     		.align	2
 1301              	.L71:
 1302 00bc 14000000 		.word	.LC2
 1303 00c0 10010000 		.word	.LC13
 1304 00c4 1C010000 		.word	.LC14
 1305 00c8 28010000 		.word	.LC15
 1306              		.cfi_endproc
ARM GAS  C:\Users\ADMINI~1\AppData\Local\Temp\cctemkqi.s 			page 30


 1307              	.LFE13:
 1309              		.section	.rodata
 1310 0135 000000   		.align	2
 1311              	.LC16:
 1312 0138 2B434F50 		.ascii	"+COPS\000"
 1312      5300
 1313 013e 0000     		.align	2
 1314              	.LC17:
 1315 0140 41542B43 		.ascii	"AT+COPS?\015\000"
 1315      4F50533F 
 1315      0D00
 1316 014a 0000     		.align	2
 1317              	.LC18:
 1318 014c 2B434F50 		.ascii	"+COPS:1,2,\"%s\"\015\000"
 1318      533A312C 
 1318      322C2225 
 1318      73220D00 
 1319              		.align	2
 1320              	.LC19:
 1321 015c 41542B43 		.ascii	"AT+COPS=1,2,\"%s\"\015\000"
 1321      4F50533D 
 1321      312C322C 
 1321      22257322 
 1321      0D00
 1322 016e 0000     		.align	2
 1323              	.LC20:
 1324 0170 41542B43 		.ascii	"AT+COPS=0\015\000"
 1324      4F50533D 
 1324      300D00
 1325              		.section	.text.boudica150_set_plmn,"ax",%progbits
 1326              		.align	1
 1327              		.syntax unified
 1328              		.thumb
 1329              		.thumb_func
 1330              		.fpu fpv4-sp-d16
 1332              	boudica150_set_plmn:
 1333              	.LFB14:
 324:C:/Users/Administrator/.iotlink/sdk/IoT_LINK/iot_link/oc/oc_lwm2m/boudica150_oc\boudica150_oc.c **** 
 325:C:/Users/Administrator/.iotlink/sdk/IoT_LINK/iot_link/oc/oc_lwm2m/boudica150_oc\boudica150_oc.c **** //set the plmn
 326:C:/Users/Administrator/.iotlink/sdk/IoT_LINK/iot_link/oc/oc_lwm2m/boudica150_oc\boudica150_oc.c **** static bool_t boudica150_set_plmn(const char *plmn)
 327:C:/Users/Administrator/.iotlink/sdk/IoT_LINK/iot_link/oc/oc_lwm2m/boudica150_oc\boudica150_oc.c **** {
 1334              		.loc 1 327 1
 1335              		.cfi_startproc
 1336              		@ args = 0, pretend = 0, frame = 144
 1337              		@ frame_needed = 1, uses_anonymous_args = 0
 1338 0000 80B5     		push	{r7, lr}
 1339              	.LCFI53:
 1340              		.cfi_def_cfa_offset 8
 1341              		.cfi_offset 7, -8
 1342              		.cfi_offset 14, -4
 1343 0002 A4B0     		sub	sp, sp, #144
 1344              	.LCFI54:
 1345              		.cfi_def_cfa_offset 152
 1346 0004 00AF     		add	r7, sp, #0
 1347              	.LCFI55:
 1348              		.cfi_def_cfa_register 7
 1349 0006 7860     		str	r0, [r7, #4]
ARM GAS  C:\Users\ADMINI~1\AppData\Local\Temp\cctemkqi.s 			page 31


 328:C:/Users/Administrator/.iotlink/sdk/IoT_LINK/iot_link/oc/oc_lwm2m/boudica150_oc\boudica150_oc.c ****     char cmd[64];
 329:C:/Users/Administrator/.iotlink/sdk/IoT_LINK/iot_link/oc/oc_lwm2m/boudica150_oc\boudica150_oc.c ****     char resp[64];
 330:C:/Users/Administrator/.iotlink/sdk/IoT_LINK/iot_link/oc/oc_lwm2m/boudica150_oc\boudica150_oc.c ****     bool_t ret;
 331:C:/Users/Administrator/.iotlink/sdk/IoT_LINK/iot_link/oc/oc_lwm2m/boudica150_oc\boudica150_oc.c **** 
 332:C:/Users/Administrator/.iotlink/sdk/IoT_LINK/iot_link/oc/oc_lwm2m/boudica150_oc\boudica150_oc.c ****     if(NULL != plmn)  //which measn we need to set if the default is not the same
 1350              		.loc 1 332 7
 1351 0008 7B68     		ldr	r3, [r7, #4]
 1352 000a 002B     		cmp	r3, #0
 1353 000c 47D0     		beq	.L74
 333:C:/Users/Administrator/.iotlink/sdk/IoT_LINK/iot_link/oc/oc_lwm2m/boudica150_oc\boudica150_oc.c ****     {
 334:C:/Users/Administrator/.iotlink/sdk/IoT_LINK/iot_link/oc/oc_lwm2m/boudica150_oc\boudica150_oc.c ****         (void) memset(resp,0,64);
 1354              		.loc 1 334 16
 1355 000e 07F10C03 		add	r3, r7, #12
 1356 0012 4022     		movs	r2, #64
 1357 0014 0021     		movs	r1, #0
 1358 0016 1846     		mov	r0, r3
 1359 0018 FFF7FEFF 		bl	memset
 335:C:/Users/Administrator/.iotlink/sdk/IoT_LINK/iot_link/oc/oc_lwm2m/boudica150_oc\boudica150_oc.c ****         ret = boudica150_atcmd_response("AT+COPS?\r","+COPS",resp,64);
 1360              		.loc 1 335 15
 1361 001c 07F10C02 		add	r2, r7, #12
 1362 0020 4023     		movs	r3, #64
 1363 0022 2D49     		ldr	r1, .L80
 1364 0024 2D48     		ldr	r0, .L80+4
 1365 0026 FFF7FEFF 		bl	boudica150_atcmd_response
 1366 002a C7F88C00 		str	r0, [r7, #140]
 336:C:/Users/Administrator/.iotlink/sdk/IoT_LINK/iot_link/oc/oc_lwm2m/boudica150_oc\boudica150_oc.c **** 
 337:C:/Users/Administrator/.iotlink/sdk/IoT_LINK/iot_link/oc/oc_lwm2m/boudica150_oc\boudica150_oc.c ****         (void) memset(cmd,0,64);
 1367              		.loc 1 337 16
 1368 002e 07F14C03 		add	r3, r7, #76
 1369 0032 4022     		movs	r2, #64
 1370 0034 0021     		movs	r1, #0
 1371 0036 1846     		mov	r0, r3
 1372 0038 FFF7FEFF 		bl	memset
 338:C:/Users/Administrator/.iotlink/sdk/IoT_LINK/iot_link/oc/oc_lwm2m/boudica150_oc\boudica150_oc.c ****         (void) snprintf(cmd,63,"+COPS:1,2,\"%s\"\r",plmn);
 1373              		.loc 1 338 16
 1374 003c 07F14C00 		add	r0, r7, #76
 1375 0040 7B68     		ldr	r3, [r7, #4]
 1376 0042 274A     		ldr	r2, .L80+8
 1377 0044 3F21     		movs	r1, #63
 1378 0046 FFF7FEFF 		bl	snprintf
 339:C:/Users/Administrator/.iotlink/sdk/IoT_LINK/iot_link/oc/oc_lwm2m/boudica150_oc\boudica150_oc.c **** 
 340:C:/Users/Administrator/.iotlink/sdk/IoT_LINK/iot_link/oc/oc_lwm2m/boudica150_oc\boudica150_oc.c ****         if((false == ret)||(NULL == strstr(resp,cmd)))//which means we need to set it
 1379              		.loc 1 340 11
 1380 004a D7F88C30 		ldr	r3, [r7, #140]
 1381 004e 002B     		cmp	r3, #0
 1382 0050 0AD0     		beq	.L75
 1383              		.loc 1 340 37 discriminator 1
 1384 0052 07F14C02 		add	r2, r7, #76
 1385 0056 07F10C03 		add	r3, r7, #12
 1386 005a 1146     		mov	r1, r2
 1387 005c 1846     		mov	r0, r3
 1388 005e FFF7FEFF 		bl	strstr
 1389 0062 0346     		mov	r3, r0
 1390              		.loc 1 340 26 discriminator 1
 1391 0064 002B     		cmp	r3, #0
 1392 0066 16D1     		bne	.L76
 1393              	.L75:
ARM GAS  C:\Users\ADMINI~1\AppData\Local\Temp\cctemkqi.s 			page 32


 341:C:/Users/Administrator/.iotlink/sdk/IoT_LINK/iot_link/oc/oc_lwm2m/boudica150_oc\boudica150_oc.c ****         {
 342:C:/Users/Administrator/.iotlink/sdk/IoT_LINK/iot_link/oc/oc_lwm2m/boudica150_oc\boudica150_oc.c ****             (void) memset(cmd,0,64);
 1394              		.loc 1 342 20
 1395 0068 07F14C03 		add	r3, r7, #76
 1396 006c 4022     		movs	r2, #64
 1397 006e 0021     		movs	r1, #0
 1398 0070 1846     		mov	r0, r3
 1399 0072 FFF7FEFF 		bl	memset
 343:C:/Users/Administrator/.iotlink/sdk/IoT_LINK/iot_link/oc/oc_lwm2m/boudica150_oc\boudica150_oc.c ****             (void) snprintf(cmd,63,"AT+COPS=1,2,\"%s\"\r",plmn);
 1400              		.loc 1 343 20
 1401 0076 07F14C00 		add	r0, r7, #76
 1402 007a 7B68     		ldr	r3, [r7, #4]
 1403 007c 194A     		ldr	r2, .L80+12
 1404 007e 3F21     		movs	r1, #63
 1405 0080 FFF7FEFF 		bl	snprintf
 344:C:/Users/Administrator/.iotlink/sdk/IoT_LINK/iot_link/oc/oc_lwm2m/boudica150_oc\boudica150_oc.c **** 
 345:C:/Users/Administrator/.iotlink/sdk/IoT_LINK/iot_link/oc/oc_lwm2m/boudica150_oc\boudica150_oc.c ****             ret = boudica150_atcmd(cmd,"OK");
 1406              		.loc 1 345 19
 1407 0084 07F14C03 		add	r3, r7, #76
 1408 0088 1749     		ldr	r1, .L80+16
 1409 008a 1846     		mov	r0, r3
 1410 008c FFF7FEFF 		bl	boudica150_atcmd
 1411 0090 C7F88C00 		str	r0, [r7, #140]
 1412              		.loc 1 345 17
 1413 0094 19E0     		b	.L78
 1414              	.L76:
 346:C:/Users/Administrator/.iotlink/sdk/IoT_LINK/iot_link/oc/oc_lwm2m/boudica150_oc\boudica150_oc.c ****         }
 347:C:/Users/Administrator/.iotlink/sdk/IoT_LINK/iot_link/oc/oc_lwm2m/boudica150_oc\boudica150_oc.c ****         else
 348:C:/Users/Administrator/.iotlink/sdk/IoT_LINK/iot_link/oc/oc_lwm2m/boudica150_oc\boudica150_oc.c ****         {
 349:C:/Users/Administrator/.iotlink/sdk/IoT_LINK/iot_link/oc/oc_lwm2m/boudica150_oc\boudica150_oc.c ****             ret = true;  //we need not to set
 1415              		.loc 1 349 17
 1416 0096 0123     		movs	r3, #1
 1417 0098 C7F88C30 		str	r3, [r7, #140]
 1418 009c 15E0     		b	.L78
 1419              	.L74:
 350:C:/Users/Administrator/.iotlink/sdk/IoT_LINK/iot_link/oc/oc_lwm2m/boudica150_oc\boudica150_oc.c ****         }
 351:C:/Users/Administrator/.iotlink/sdk/IoT_LINK/iot_link/oc/oc_lwm2m/boudica150_oc\boudica150_oc.c ****     }
 352:C:/Users/Administrator/.iotlink/sdk/IoT_LINK/iot_link/oc/oc_lwm2m/boudica150_oc\boudica150_oc.c ****     else  //set it to auto
 353:C:/Users/Administrator/.iotlink/sdk/IoT_LINK/iot_link/oc/oc_lwm2m/boudica150_oc\boudica150_oc.c ****     {
 354:C:/Users/Administrator/.iotlink/sdk/IoT_LINK/iot_link/oc/oc_lwm2m/boudica150_oc\boudica150_oc.c ****         (void) memset(cmd,0,64);
 1420              		.loc 1 354 16
 1421 009e 07F14C03 		add	r3, r7, #76
 1422 00a2 4022     		movs	r2, #64
 1423 00a4 0021     		movs	r1, #0
 1424 00a6 1846     		mov	r0, r3
 1425 00a8 FFF7FEFF 		bl	memset
 355:C:/Users/Administrator/.iotlink/sdk/IoT_LINK/iot_link/oc/oc_lwm2m/boudica150_oc\boudica150_oc.c ****         (void) snprintf(cmd,64,"AT+COPS=0\r");
 1426              		.loc 1 355 16
 1427 00ac 07F14C03 		add	r3, r7, #76
 1428 00b0 0E4A     		ldr	r2, .L80+20
 1429 00b2 4021     		movs	r1, #64
 1430 00b4 1846     		mov	r0, r3
 1431 00b6 FFF7FEFF 		bl	snprintf
 356:C:/Users/Administrator/.iotlink/sdk/IoT_LINK/iot_link/oc/oc_lwm2m/boudica150_oc\boudica150_oc.c ****         ret = boudica150_atcmd(cmd,"OK");
 1432              		.loc 1 356 15
 1433 00ba 07F14C03 		add	r3, r7, #76
 1434 00be 0A49     		ldr	r1, .L80+16
ARM GAS  C:\Users\ADMINI~1\AppData\Local\Temp\cctemkqi.s 			page 33


 1435 00c0 1846     		mov	r0, r3
 1436 00c2 FFF7FEFF 		bl	boudica150_atcmd
 1437 00c6 C7F88C00 		str	r0, [r7, #140]
 1438              	.L78:
 357:C:/Users/Administrator/.iotlink/sdk/IoT_LINK/iot_link/oc/oc_lwm2m/boudica150_oc\boudica150_oc.c ****     }
 358:C:/Users/Administrator/.iotlink/sdk/IoT_LINK/iot_link/oc/oc_lwm2m/boudica150_oc\boudica150_oc.c **** 
 359:C:/Users/Administrator/.iotlink/sdk/IoT_LINK/iot_link/oc/oc_lwm2m/boudica150_oc\boudica150_oc.c ****     return ret;
 1439              		.loc 1 359 12
 1440 00ca D7F88C30 		ldr	r3, [r7, #140]
 360:C:/Users/Administrator/.iotlink/sdk/IoT_LINK/iot_link/oc/oc_lwm2m/boudica150_oc\boudica150_oc.c **** }
 1441              		.loc 1 360 1
 1442 00ce 1846     		mov	r0, r3
 1443 00d0 9037     		adds	r7, r7, #144
 1444              	.LCFI56:
 1445              		.cfi_def_cfa_offset 8
 1446 00d2 BD46     		mov	sp, r7
 1447              	.LCFI57:
 1448              		.cfi_def_cfa_register 13
 1449              		@ sp needed
 1450 00d4 80BD     		pop	{r7, pc}
 1451              	.L81:
 1452 00d6 00BF     		.align	2
 1453              	.L80:
 1454 00d8 38010000 		.word	.LC16
 1455 00dc 40010000 		.word	.LC17
 1456 00e0 4C010000 		.word	.LC18
 1457 00e4 5C010000 		.word	.LC19
 1458 00e8 14000000 		.word	.LC2
 1459 00ec 70010000 		.word	.LC20
 1460              		.cfi_endproc
 1461              	.LFE14:
 1463              		.section	.rodata
 1464 017b 00       		.align	2
 1465              	.LC21:
 1466 017c 41542B43 		.ascii	"AT+CGDCONT?\015\000"
 1466      4744434F 
 1466      4E543F0D 
 1466      00
 1467 0189 000000   		.align	2
 1468              	.LC22:
 1469 018c 2B434744 		.ascii	"+CGDCONT:\"%s\"\015\000"
 1469      434F4E54 
 1469      3A222573 
 1469      220D00
 1470 019b 00       		.align	2
 1471              	.LC23:
 1472 019c 41542B43 		.ascii	"AT+CGDCONT=%s\015\000"
 1472      4744434F 
 1472      4E543D25 
 1472      730D00
 1473              		.section	.text.boudica150_set_apn,"ax",%progbits
 1474              		.align	1
 1475              		.syntax unified
 1476              		.thumb
 1477              		.thumb_func
 1478              		.fpu fpv4-sp-d16
 1480              	boudica150_set_apn:
ARM GAS  C:\Users\ADMINI~1\AppData\Local\Temp\cctemkqi.s 			page 34


 1481              	.LFB15:
 361:C:/Users/Administrator/.iotlink/sdk/IoT_LINK/iot_link/oc/oc_lwm2m/boudica150_oc\boudica150_oc.c **** 
 362:C:/Users/Administrator/.iotlink/sdk/IoT_LINK/iot_link/oc/oc_lwm2m/boudica150_oc\boudica150_oc.c **** //set the apn
 363:C:/Users/Administrator/.iotlink/sdk/IoT_LINK/iot_link/oc/oc_lwm2m/boudica150_oc\boudica150_oc.c **** static bool_t boudica150_set_apn(const char *apn)
 364:C:/Users/Administrator/.iotlink/sdk/IoT_LINK/iot_link/oc/oc_lwm2m/boudica150_oc\boudica150_oc.c **** {
 1482              		.loc 1 364 1
 1483              		.cfi_startproc
 1484              		@ args = 0, pretend = 0, frame = 144
 1485              		@ frame_needed = 1, uses_anonymous_args = 0
 1486 0000 80B5     		push	{r7, lr}
 1487              	.LCFI58:
 1488              		.cfi_def_cfa_offset 8
 1489              		.cfi_offset 7, -8
 1490              		.cfi_offset 14, -4
 1491 0002 A4B0     		sub	sp, sp, #144
 1492              	.LCFI59:
 1493              		.cfi_def_cfa_offset 152
 1494 0004 00AF     		add	r7, sp, #0
 1495              	.LCFI60:
 1496              		.cfi_def_cfa_register 7
 1497 0006 7860     		str	r0, [r7, #4]
 365:C:/Users/Administrator/.iotlink/sdk/IoT_LINK/iot_link/oc/oc_lwm2m/boudica150_oc\boudica150_oc.c ****     char cmd[64];
 366:C:/Users/Administrator/.iotlink/sdk/IoT_LINK/iot_link/oc/oc_lwm2m/boudica150_oc\boudica150_oc.c ****     char resp[64];
 367:C:/Users/Administrator/.iotlink/sdk/IoT_LINK/iot_link/oc/oc_lwm2m/boudica150_oc\boudica150_oc.c **** 
 368:C:/Users/Administrator/.iotlink/sdk/IoT_LINK/iot_link/oc/oc_lwm2m/boudica150_oc\boudica150_oc.c ****     bool_t ret = true;
 1498              		.loc 1 368 12
 1499 0008 0123     		movs	r3, #1
 1500 000a C7F88C30 		str	r3, [r7, #140]
 369:C:/Users/Administrator/.iotlink/sdk/IoT_LINK/iot_link/oc/oc_lwm2m/boudica150_oc\boudica150_oc.c **** 
 370:C:/Users/Administrator/.iotlink/sdk/IoT_LINK/iot_link/oc/oc_lwm2m/boudica150_oc\boudica150_oc.c ****     if(NULL != apn)  //which measn we need to set if the default is not the same
 1501              		.loc 1 370 7
 1502 000e 7B68     		ldr	r3, [r7, #4]
 1503 0010 002B     		cmp	r3, #0
 1504 0012 46D0     		beq	.L83
 371:C:/Users/Administrator/.iotlink/sdk/IoT_LINK/iot_link/oc/oc_lwm2m/boudica150_oc\boudica150_oc.c ****     {
 372:C:/Users/Administrator/.iotlink/sdk/IoT_LINK/iot_link/oc/oc_lwm2m/boudica150_oc\boudica150_oc.c ****         (void) memset(resp,0,64);
 1505              		.loc 1 372 16
 1506 0014 07F10C03 		add	r3, r7, #12
 1507 0018 4022     		movs	r2, #64
 1508 001a 0021     		movs	r1, #0
 1509 001c 1846     		mov	r0, r3
 1510 001e FFF7FEFF 		bl	memset
 373:C:/Users/Administrator/.iotlink/sdk/IoT_LINK/iot_link/oc/oc_lwm2m/boudica150_oc\boudica150_oc.c ****         ret = boudica150_atcmd_response("AT+CGDCONT?\r","OK",resp,64);
 1511              		.loc 1 373 15
 1512 0022 07F10C02 		add	r2, r7, #12
 1513 0026 4023     		movs	r3, #64
 1514 0028 2149     		ldr	r1, .L87
 1515 002a 2248     		ldr	r0, .L87+4
 1516 002c FFF7FEFF 		bl	boudica150_atcmd_response
 1517 0030 C7F88C00 		str	r0, [r7, #140]
 374:C:/Users/Administrator/.iotlink/sdk/IoT_LINK/iot_link/oc/oc_lwm2m/boudica150_oc\boudica150_oc.c **** 
 375:C:/Users/Administrator/.iotlink/sdk/IoT_LINK/iot_link/oc/oc_lwm2m/boudica150_oc\boudica150_oc.c ****         (void) memset(cmd,0,64);
 1518              		.loc 1 375 16
 1519 0034 07F14C03 		add	r3, r7, #76
 1520 0038 4022     		movs	r2, #64
 1521 003a 0021     		movs	r1, #0
 1522 003c 1846     		mov	r0, r3
ARM GAS  C:\Users\ADMINI~1\AppData\Local\Temp\cctemkqi.s 			page 35


 1523 003e FFF7FEFF 		bl	memset
 376:C:/Users/Administrator/.iotlink/sdk/IoT_LINK/iot_link/oc/oc_lwm2m/boudica150_oc\boudica150_oc.c ****         (void) snprintf(cmd,63,"+CGDCONT:\"%s\"\r",apn); //TODO, check if it is right
 1524              		.loc 1 376 16
 1525 0042 07F14C00 		add	r0, r7, #76
 1526 0046 7B68     		ldr	r3, [r7, #4]
 1527 0048 1B4A     		ldr	r2, .L87+8
 1528 004a 3F21     		movs	r1, #63
 1529 004c FFF7FEFF 		bl	snprintf
 377:C:/Users/Administrator/.iotlink/sdk/IoT_LINK/iot_link/oc/oc_lwm2m/boudica150_oc\boudica150_oc.c ****         if((false == ret)||(NULL == strstr(resp,cmd)))//which means we need to set it
 1530              		.loc 1 377 11
 1531 0050 D7F88C30 		ldr	r3, [r7, #140]
 1532 0054 002B     		cmp	r3, #0
 1533 0056 0AD0     		beq	.L84
 1534              		.loc 1 377 37 discriminator 1
 1535 0058 07F14C02 		add	r2, r7, #76
 1536 005c 07F10C03 		add	r3, r7, #12
 1537 0060 1146     		mov	r1, r2
 1538 0062 1846     		mov	r0, r3
 1539 0064 FFF7FEFF 		bl	strstr
 1540 0068 0346     		mov	r3, r0
 1541              		.loc 1 377 26 discriminator 1
 1542 006a 002B     		cmp	r3, #0
 1543 006c 16D1     		bne	.L85
 1544              	.L84:
 378:C:/Users/Administrator/.iotlink/sdk/IoT_LINK/iot_link/oc/oc_lwm2m/boudica150_oc\boudica150_oc.c ****         {
 379:C:/Users/Administrator/.iotlink/sdk/IoT_LINK/iot_link/oc/oc_lwm2m/boudica150_oc\boudica150_oc.c ****             (void) memset(cmd,0,64);
 1545              		.loc 1 379 20
 1546 006e 07F14C03 		add	r3, r7, #76
 1547 0072 4022     		movs	r2, #64
 1548 0074 0021     		movs	r1, #0
 1549 0076 1846     		mov	r0, r3
 1550 0078 FFF7FEFF 		bl	memset
 380:C:/Users/Administrator/.iotlink/sdk/IoT_LINK/iot_link/oc/oc_lwm2m/boudica150_oc\boudica150_oc.c ****             (void) snprintf(cmd,63,"AT+CGDCONT=%s\r",apn);
 1551              		.loc 1 380 20
 1552 007c 07F14C00 		add	r0, r7, #76
 1553 0080 7B68     		ldr	r3, [r7, #4]
 1554 0082 0E4A     		ldr	r2, .L87+12
 1555 0084 3F21     		movs	r1, #63
 1556 0086 FFF7FEFF 		bl	snprintf
 381:C:/Users/Administrator/.iotlink/sdk/IoT_LINK/iot_link/oc/oc_lwm2m/boudica150_oc\boudica150_oc.c ****             ret = boudica150_atcmd(cmd,"OK");
 1557              		.loc 1 381 19
 1558 008a 07F14C03 		add	r3, r7, #76
 1559 008e 0849     		ldr	r1, .L87
 1560 0090 1846     		mov	r0, r3
 1561 0092 FFF7FEFF 		bl	boudica150_atcmd
 1562 0096 C7F88C00 		str	r0, [r7, #140]
 1563              		.loc 1 381 17
 1564 009a 02E0     		b	.L83
 1565              	.L85:
 382:C:/Users/Administrator/.iotlink/sdk/IoT_LINK/iot_link/oc/oc_lwm2m/boudica150_oc\boudica150_oc.c ****         }
 383:C:/Users/Administrator/.iotlink/sdk/IoT_LINK/iot_link/oc/oc_lwm2m/boudica150_oc\boudica150_oc.c ****         else
 384:C:/Users/Administrator/.iotlink/sdk/IoT_LINK/iot_link/oc/oc_lwm2m/boudica150_oc\boudica150_oc.c ****         {
 385:C:/Users/Administrator/.iotlink/sdk/IoT_LINK/iot_link/oc/oc_lwm2m/boudica150_oc\boudica150_oc.c ****             ret = true;  //we need not to set
 1566              		.loc 1 385 17
 1567 009c 0123     		movs	r3, #1
 1568 009e C7F88C30 		str	r3, [r7, #140]
 1569              	.L83:
ARM GAS  C:\Users\ADMINI~1\AppData\Local\Temp\cctemkqi.s 			page 36


 386:C:/Users/Administrator/.iotlink/sdk/IoT_LINK/iot_link/oc/oc_lwm2m/boudica150_oc\boudica150_oc.c ****         }
 387:C:/Users/Administrator/.iotlink/sdk/IoT_LINK/iot_link/oc/oc_lwm2m/boudica150_oc\boudica150_oc.c ****     }
 388:C:/Users/Administrator/.iotlink/sdk/IoT_LINK/iot_link/oc/oc_lwm2m/boudica150_oc\boudica150_oc.c ****     return ret;
 1570              		.loc 1 388 12
 1571 00a2 D7F88C30 		ldr	r3, [r7, #140]
 389:C:/Users/Administrator/.iotlink/sdk/IoT_LINK/iot_link/oc/oc_lwm2m/boudica150_oc\boudica150_oc.c **** }
 1572              		.loc 1 389 1
 1573 00a6 1846     		mov	r0, r3
 1574 00a8 9037     		adds	r7, r7, #144
 1575              	.LCFI61:
 1576              		.cfi_def_cfa_offset 8
 1577 00aa BD46     		mov	sp, r7
 1578              	.LCFI62:
 1579              		.cfi_def_cfa_register 13
 1580              		@ sp needed
 1581 00ac 80BD     		pop	{r7, pc}
 1582              	.L88:
 1583 00ae 00BF     		.align	2
 1584              	.L87:
 1585 00b0 14000000 		.word	.LC2
 1586 00b4 7C010000 		.word	.LC21
 1587 00b8 8C010000 		.word	.LC22
 1588 00bc 9C010000 		.word	.LC23
 1589              		.cfi_endproc
 1590              	.LFE15:
 1592              		.section	.rodata
 1593 01ab 00       		.align	2
 1594              	.LC24:
 1595 01ac 41542B4E 		.ascii	"AT+NCDP?\015\000"
 1595      4344503F 
 1595      0D00
 1596 01b6 0000     		.align	2
 1597              	.LC25:
 1598 01b8 2B4E4344 		.ascii	"+NCDP:%s,%s\015\000"
 1598      503A2573 
 1598      2C25730D 
 1598      00
 1599 01c5 000000   		.align	2
 1600              	.LC26:
 1601 01c8 41542B4E 		.ascii	"AT+NCDP=%s,%s\015\000"
 1601      4344503D 
 1601      25732C25 
 1601      730D00
 1602              		.section	.text.boudica150_set_cdp,"ax",%progbits
 1603              		.align	1
 1604              		.syntax unified
 1605              		.thumb
 1606              		.thumb_func
 1607              		.fpu fpv4-sp-d16
 1609              	boudica150_set_cdp:
 1610              	.LFB16:
 390:C:/Users/Administrator/.iotlink/sdk/IoT_LINK/iot_link/oc/oc_lwm2m/boudica150_oc\boudica150_oc.c **** 
 391:C:/Users/Administrator/.iotlink/sdk/IoT_LINK/iot_link/oc/oc_lwm2m/boudica150_oc\boudica150_oc.c **** //set the cdp
 392:C:/Users/Administrator/.iotlink/sdk/IoT_LINK/iot_link/oc/oc_lwm2m/boudica150_oc\boudica150_oc.c **** static bool_t boudica150_set_cdp(const char *server,const char *port)
 393:C:/Users/Administrator/.iotlink/sdk/IoT_LINK/iot_link/oc/oc_lwm2m/boudica150_oc\boudica150_oc.c **** {
 1611              		.loc 1 393 1
 1612              		.cfi_startproc
ARM GAS  C:\Users\ADMINI~1\AppData\Local\Temp\cctemkqi.s 			page 37


 1613              		@ args = 0, pretend = 0, frame = 208
 1614              		@ frame_needed = 1, uses_anonymous_args = 0
 1615 0000 80B5     		push	{r7, lr}
 1616              	.LCFI63:
 1617              		.cfi_def_cfa_offset 8
 1618              		.cfi_offset 7, -8
 1619              		.cfi_offset 14, -4
 1620 0002 B6B0     		sub	sp, sp, #216
 1621              	.LCFI64:
 1622              		.cfi_def_cfa_offset 224
 1623 0004 02AF     		add	r7, sp, #8
 1624              	.LCFI65:
 1625              		.cfi_def_cfa 7, 216
 1626 0006 7860     		str	r0, [r7, #4]
 1627 0008 3960     		str	r1, [r7]
 394:C:/Users/Administrator/.iotlink/sdk/IoT_LINK/iot_link/oc/oc_lwm2m/boudica150_oc\boudica150_oc.c ****     char cmd[64];
 395:C:/Users/Administrator/.iotlink/sdk/IoT_LINK/iot_link/oc/oc_lwm2m/boudica150_oc\boudica150_oc.c ****     char resp[64];
 396:C:/Users/Administrator/.iotlink/sdk/IoT_LINK/iot_link/oc/oc_lwm2m/boudica150_oc\boudica150_oc.c ****     char cmp[64];
 397:C:/Users/Administrator/.iotlink/sdk/IoT_LINK/iot_link/oc/oc_lwm2m/boudica150_oc\boudica150_oc.c ****     bool_t ret = true;
 1628              		.loc 1 397 12
 1629 000a 0123     		movs	r3, #1
 1630 000c C7F8CC30 		str	r3, [r7, #204]
 398:C:/Users/Administrator/.iotlink/sdk/IoT_LINK/iot_link/oc/oc_lwm2m/boudica150_oc\boudica150_oc.c **** 
 399:C:/Users/Administrator/.iotlink/sdk/IoT_LINK/iot_link/oc/oc_lwm2m/boudica150_oc\boudica150_oc.c ****     if(NULL != server)  //which measn we need to set if the default is not the same
 1631              		.loc 1 399 7
 1632 0010 7B68     		ldr	r3, [r7, #4]
 1633 0012 002B     		cmp	r3, #0
 1634 0014 51D0     		beq	.L90
 400:C:/Users/Administrator/.iotlink/sdk/IoT_LINK/iot_link/oc/oc_lwm2m/boudica150_oc\boudica150_oc.c ****     {
 401:C:/Users/Administrator/.iotlink/sdk/IoT_LINK/iot_link/oc/oc_lwm2m/boudica150_oc\boudica150_oc.c ****         (void) memset(resp,0,64);
 1635              		.loc 1 401 16
 1636 0016 07F14C03 		add	r3, r7, #76
 1637 001a 4022     		movs	r2, #64
 1638 001c 0021     		movs	r1, #0
 1639 001e 1846     		mov	r0, r3
 1640 0020 FFF7FEFF 		bl	memset
 402:C:/Users/Administrator/.iotlink/sdk/IoT_LINK/iot_link/oc/oc_lwm2m/boudica150_oc\boudica150_oc.c ****         (void) memset(cmp,0,64);
 1641              		.loc 1 402 16
 1642 0024 07F10C03 		add	r3, r7, #12
 1643 0028 4022     		movs	r2, #64
 1644 002a 0021     		movs	r1, #0
 1645 002c 1846     		mov	r0, r3
 1646 002e FFF7FEFF 		bl	memset
 403:C:/Users/Administrator/.iotlink/sdk/IoT_LINK/iot_link/oc/oc_lwm2m/boudica150_oc\boudica150_oc.c ****         (void) memset(cmd,0,64);
 1647              		.loc 1 403 16
 1648 0032 07F18C03 		add	r3, r7, #140
 1649 0036 4022     		movs	r2, #64
 1650 0038 0021     		movs	r1, #0
 1651 003a 1846     		mov	r0, r3
 1652 003c FFF7FEFF 		bl	memset
 404:C:/Users/Administrator/.iotlink/sdk/IoT_LINK/iot_link/oc/oc_lwm2m/boudica150_oc\boudica150_oc.c ****         ret = boudica150_atcmd_response("AT+NCDP?\r","OK",resp,64);
 1653              		.loc 1 404 15
 1654 0040 07F14C02 		add	r2, r7, #76
 1655 0044 4023     		movs	r3, #64
 1656 0046 2049     		ldr	r1, .L94
 1657 0048 2048     		ldr	r0, .L94+4
 1658 004a FFF7FEFF 		bl	boudica150_atcmd_response
ARM GAS  C:\Users\ADMINI~1\AppData\Local\Temp\cctemkqi.s 			page 38


 1659 004e C7F8CC00 		str	r0, [r7, #204]
 405:C:/Users/Administrator/.iotlink/sdk/IoT_LINK/iot_link/oc/oc_lwm2m/boudica150_oc\boudica150_oc.c ****         (void) snprintf(cmp,64,"+NCDP:%s,%s\r",server,port);
 1660              		.loc 1 405 16
 1661 0052 07F10C00 		add	r0, r7, #12
 1662 0056 3B68     		ldr	r3, [r7]
 1663 0058 0093     		str	r3, [sp]
 1664 005a 7B68     		ldr	r3, [r7, #4]
 1665 005c 1C4A     		ldr	r2, .L94+8
 1666 005e 4021     		movs	r1, #64
 1667 0060 FFF7FEFF 		bl	snprintf
 406:C:/Users/Administrator/.iotlink/sdk/IoT_LINK/iot_link/oc/oc_lwm2m/boudica150_oc\boudica150_oc.c ****         if((false == ret)||(NULL == strstr(resp,cmp)))//which means we need to set it
 1668              		.loc 1 406 11
 1669 0064 D7F8CC30 		ldr	r3, [r7, #204]
 1670 0068 002B     		cmp	r3, #0
 1671 006a 0AD0     		beq	.L91
 1672              		.loc 1 406 37 discriminator 1
 1673 006c 07F10C02 		add	r2, r7, #12
 1674 0070 07F14C03 		add	r3, r7, #76
 1675 0074 1146     		mov	r1, r2
 1676 0076 1846     		mov	r0, r3
 1677 0078 FFF7FEFF 		bl	strstr
 1678 007c 0346     		mov	r3, r0
 1679              		.loc 1 406 26 discriminator 1
 1680 007e 002B     		cmp	r3, #0
 1681 0080 18D1     		bne	.L92
 1682              	.L91:
 407:C:/Users/Administrator/.iotlink/sdk/IoT_LINK/iot_link/oc/oc_lwm2m/boudica150_oc\boudica150_oc.c ****         {
 408:C:/Users/Administrator/.iotlink/sdk/IoT_LINK/iot_link/oc/oc_lwm2m/boudica150_oc\boudica150_oc.c ****             (void) memset(cmd,0,64);
 1683              		.loc 1 408 20
 1684 0082 07F18C03 		add	r3, r7, #140
 1685 0086 4022     		movs	r2, #64
 1686 0088 0021     		movs	r1, #0
 1687 008a 1846     		mov	r0, r3
 1688 008c FFF7FEFF 		bl	memset
 409:C:/Users/Administrator/.iotlink/sdk/IoT_LINK/iot_link/oc/oc_lwm2m/boudica150_oc\boudica150_oc.c ****             (void) snprintf(cmd,64,"AT+NCDP=%s,%s\r",server,port);
 1689              		.loc 1 409 20
 1690 0090 07F18C00 		add	r0, r7, #140
 1691 0094 3B68     		ldr	r3, [r7]
 1692 0096 0093     		str	r3, [sp]
 1693 0098 7B68     		ldr	r3, [r7, #4]
 1694 009a 0E4A     		ldr	r2, .L94+12
 1695 009c 4021     		movs	r1, #64
 1696 009e FFF7FEFF 		bl	snprintf
 410:C:/Users/Administrator/.iotlink/sdk/IoT_LINK/iot_link/oc/oc_lwm2m/boudica150_oc\boudica150_oc.c ****             ret = boudica150_atcmd(cmd,"OK");
 1697              		.loc 1 410 19
 1698 00a2 07F18C03 		add	r3, r7, #140
 1699 00a6 0849     		ldr	r1, .L94
 1700 00a8 1846     		mov	r0, r3
 1701 00aa FFF7FEFF 		bl	boudica150_atcmd
 1702 00ae C7F8CC00 		str	r0, [r7, #204]
 1703              		.loc 1 410 17
 1704 00b2 02E0     		b	.L90
 1705              	.L92:
 411:C:/Users/Administrator/.iotlink/sdk/IoT_LINK/iot_link/oc/oc_lwm2m/boudica150_oc\boudica150_oc.c ****         }
 412:C:/Users/Administrator/.iotlink/sdk/IoT_LINK/iot_link/oc/oc_lwm2m/boudica150_oc\boudica150_oc.c ****         else
 413:C:/Users/Administrator/.iotlink/sdk/IoT_LINK/iot_link/oc/oc_lwm2m/boudica150_oc\boudica150_oc.c ****         {
 414:C:/Users/Administrator/.iotlink/sdk/IoT_LINK/iot_link/oc/oc_lwm2m/boudica150_oc\boudica150_oc.c ****             ret = true;  //we need not to set
ARM GAS  C:\Users\ADMINI~1\AppData\Local\Temp\cctemkqi.s 			page 39


 1706              		.loc 1 414 17
 1707 00b4 0123     		movs	r3, #1
 1708 00b6 C7F8CC30 		str	r3, [r7, #204]
 1709              	.L90:
 415:C:/Users/Administrator/.iotlink/sdk/IoT_LINK/iot_link/oc/oc_lwm2m/boudica150_oc\boudica150_oc.c ****         }
 416:C:/Users/Administrator/.iotlink/sdk/IoT_LINK/iot_link/oc/oc_lwm2m/boudica150_oc\boudica150_oc.c ****     }
 417:C:/Users/Administrator/.iotlink/sdk/IoT_LINK/iot_link/oc/oc_lwm2m/boudica150_oc\boudica150_oc.c ****     return ret;
 1710              		.loc 1 417 12
 1711 00ba D7F8CC30 		ldr	r3, [r7, #204]
 418:C:/Users/Administrator/.iotlink/sdk/IoT_LINK/iot_link/oc/oc_lwm2m/boudica150_oc\boudica150_oc.c **** }
 1712              		.loc 1 418 1
 1713 00be 1846     		mov	r0, r3
 1714 00c0 D037     		adds	r7, r7, #208
 1715              	.LCFI66:
 1716              		.cfi_def_cfa_offset 8
 1717 00c2 BD46     		mov	sp, r7
 1718              	.LCFI67:
 1719              		.cfi_def_cfa_register 13
 1720              		@ sp needed
 1721 00c4 80BD     		pop	{r7, pc}
 1722              	.L95:
 1723 00c6 00BF     		.align	2
 1724              	.L94:
 1725 00c8 14000000 		.word	.LC2
 1726 00cc AC010000 		.word	.LC24
 1727 00d0 B8010000 		.word	.LC25
 1728 00d4 C8010000 		.word	.LC26
 1729              		.cfi_endproc
 1730              	.LFE16:
 1732              		.section	.rodata
 1733 01d7 00       		.align	2
 1734              	.LC27:
 1735 01d8 41542B43 		.ascii	"AT+CMEE=%d\015\000"
 1735      4D45453D 
 1735      25640D00 
 1736              		.section	.text.boudica150_set_cmee,"ax",%progbits
 1737              		.align	1
 1738              		.syntax unified
 1739              		.thumb
 1740              		.thumb_func
 1741              		.fpu fpv4-sp-d16
 1743              	boudica150_set_cmee:
 1744              	.LFB17:
 419:C:/Users/Administrator/.iotlink/sdk/IoT_LINK/iot_link/oc/oc_lwm2m/boudica150_oc\boudica150_oc.c **** 
 420:C:/Users/Administrator/.iotlink/sdk/IoT_LINK/iot_link/oc/oc_lwm2m/boudica150_oc\boudica150_oc.c **** //enable the cmee
 421:C:/Users/Administrator/.iotlink/sdk/IoT_LINK/iot_link/oc/oc_lwm2m/boudica150_oc\boudica150_oc.c **** 
 422:C:/Users/Administrator/.iotlink/sdk/IoT_LINK/iot_link/oc/oc_lwm2m/boudica150_oc\boudica150_oc.c **** static bool_t boudica150_set_cmee(int enable)
 423:C:/Users/Administrator/.iotlink/sdk/IoT_LINK/iot_link/oc/oc_lwm2m/boudica150_oc\boudica150_oc.c **** {
 1745              		.loc 1 423 1
 1746              		.cfi_startproc
 1747              		@ args = 0, pretend = 0, frame = 80
 1748              		@ frame_needed = 1, uses_anonymous_args = 0
 1749 0000 80B5     		push	{r7, lr}
 1750              	.LCFI68:
 1751              		.cfi_def_cfa_offset 8
 1752              		.cfi_offset 7, -8
 1753              		.cfi_offset 14, -4
ARM GAS  C:\Users\ADMINI~1\AppData\Local\Temp\cctemkqi.s 			page 40


 1754 0002 94B0     		sub	sp, sp, #80
 1755              	.LCFI69:
 1756              		.cfi_def_cfa_offset 88
 1757 0004 00AF     		add	r7, sp, #0
 1758              	.LCFI70:
 1759              		.cfi_def_cfa_register 7
 1760 0006 7860     		str	r0, [r7, #4]
 424:C:/Users/Administrator/.iotlink/sdk/IoT_LINK/iot_link/oc/oc_lwm2m/boudica150_oc\boudica150_oc.c ****     bool_t ret;
 425:C:/Users/Administrator/.iotlink/sdk/IoT_LINK/iot_link/oc/oc_lwm2m/boudica150_oc\boudica150_oc.c ****     char cmd[64];
 426:C:/Users/Administrator/.iotlink/sdk/IoT_LINK/iot_link/oc/oc_lwm2m/boudica150_oc\boudica150_oc.c **** 
 427:C:/Users/Administrator/.iotlink/sdk/IoT_LINK/iot_link/oc/oc_lwm2m/boudica150_oc\boudica150_oc.c ****     (void) memset(cmd,0,64);
 1761              		.loc 1 427 12
 1762 0008 07F10C03 		add	r3, r7, #12
 1763 000c 4022     		movs	r2, #64
 1764 000e 0021     		movs	r1, #0
 1765 0010 1846     		mov	r0, r3
 1766 0012 FFF7FEFF 		bl	memset
 428:C:/Users/Administrator/.iotlink/sdk/IoT_LINK/iot_link/oc/oc_lwm2m/boudica150_oc\boudica150_oc.c ****     (void) snprintf(cmd,64,"AT+CMEE=%d\r",enable);
 1767              		.loc 1 428 12
 1768 0016 07F10C00 		add	r0, r7, #12
 1769 001a 7B68     		ldr	r3, [r7, #4]
 1770 001c 074A     		ldr	r2, .L98
 1771 001e 4021     		movs	r1, #64
 1772 0020 FFF7FEFF 		bl	snprintf
 429:C:/Users/Administrator/.iotlink/sdk/IoT_LINK/iot_link/oc/oc_lwm2m/boudica150_oc\boudica150_oc.c **** 
 430:C:/Users/Administrator/.iotlink/sdk/IoT_LINK/iot_link/oc/oc_lwm2m/boudica150_oc\boudica150_oc.c ****     ret = boudica150_atcmd(cmd,"OK");
 1773              		.loc 1 430 11
 1774 0024 07F10C03 		add	r3, r7, #12
 1775 0028 0549     		ldr	r1, .L98+4
 1776 002a 1846     		mov	r0, r3
 1777 002c FFF7FEFF 		bl	boudica150_atcmd
 1778 0030 F864     		str	r0, [r7, #76]
 431:C:/Users/Administrator/.iotlink/sdk/IoT_LINK/iot_link/oc/oc_lwm2m/boudica150_oc\boudica150_oc.c **** 
 432:C:/Users/Administrator/.iotlink/sdk/IoT_LINK/iot_link/oc/oc_lwm2m/boudica150_oc\boudica150_oc.c ****     return ret;
 1779              		.loc 1 432 12
 1780 0032 FB6C     		ldr	r3, [r7, #76]
 433:C:/Users/Administrator/.iotlink/sdk/IoT_LINK/iot_link/oc/oc_lwm2m/boudica150_oc\boudica150_oc.c **** }
 1781              		.loc 1 433 1
 1782 0034 1846     		mov	r0, r3
 1783 0036 5037     		adds	r7, r7, #80
 1784              	.LCFI71:
 1785              		.cfi_def_cfa_offset 8
 1786 0038 BD46     		mov	sp, r7
 1787              	.LCFI72:
 1788              		.cfi_def_cfa_register 13
 1789              		@ sp needed
 1790 003a 80BD     		pop	{r7, pc}
 1791              	.L99:
 1792              		.align	2
 1793              	.L98:
 1794 003c D8010000 		.word	.LC27
 1795 0040 14000000 		.word	.LC2
 1796              		.cfi_endproc
 1797              	.LFE17:
 1799              		.section	.rodata
 1800              		.align	2
 1801              	.LC28:
ARM GAS  C:\Users\ADMINI~1\AppData\Local\Temp\cctemkqi.s 			page 41


 1802 01e4 41542B43 		.ascii	"AT+CGATT=%d\015\000"
 1802      47415454 
 1802      3D25640D 
 1802      00
 1803              		.section	.text.boudica150_set_cgatt,"ax",%progbits
 1804              		.align	1
 1805              		.syntax unified
 1806              		.thumb
 1807              		.thumb_func
 1808              		.fpu fpv4-sp-d16
 1810              	boudica150_set_cgatt:
 1811              	.LFB18:
 434:C:/Users/Administrator/.iotlink/sdk/IoT_LINK/iot_link/oc/oc_lwm2m/boudica150_oc\boudica150_oc.c **** 
 435:C:/Users/Administrator/.iotlink/sdk/IoT_LINK/iot_link/oc/oc_lwm2m/boudica150_oc\boudica150_oc.c **** //enable the network
 436:C:/Users/Administrator/.iotlink/sdk/IoT_LINK/iot_link/oc/oc_lwm2m/boudica150_oc\boudica150_oc.c **** static bool_t boudica150_set_cgatt(int enable)  //unit second
 437:C:/Users/Administrator/.iotlink/sdk/IoT_LINK/iot_link/oc/oc_lwm2m/boudica150_oc\boudica150_oc.c **** {
 1812              		.loc 1 437 1
 1813              		.cfi_startproc
 1814              		@ args = 0, pretend = 0, frame = 80
 1815              		@ frame_needed = 1, uses_anonymous_args = 0
 1816 0000 80B5     		push	{r7, lr}
 1817              	.LCFI73:
 1818              		.cfi_def_cfa_offset 8
 1819              		.cfi_offset 7, -8
 1820              		.cfi_offset 14, -4
 1821 0002 94B0     		sub	sp, sp, #80
 1822              	.LCFI74:
 1823              		.cfi_def_cfa_offset 88
 1824 0004 00AF     		add	r7, sp, #0
 1825              	.LCFI75:
 1826              		.cfi_def_cfa_register 7
 1827 0006 7860     		str	r0, [r7, #4]
 438:C:/Users/Administrator/.iotlink/sdk/IoT_LINK/iot_link/oc/oc_lwm2m/boudica150_oc\boudica150_oc.c ****     bool_t ret ;
 439:C:/Users/Administrator/.iotlink/sdk/IoT_LINK/iot_link/oc/oc_lwm2m/boudica150_oc\boudica150_oc.c ****     char cmd[64];
 440:C:/Users/Administrator/.iotlink/sdk/IoT_LINK/iot_link/oc/oc_lwm2m/boudica150_oc\boudica150_oc.c **** 
 441:C:/Users/Administrator/.iotlink/sdk/IoT_LINK/iot_link/oc/oc_lwm2m/boudica150_oc\boudica150_oc.c ****     (void) memset(cmd,0,64);
 1828              		.loc 1 441 12
 1829 0008 07F10C03 		add	r3, r7, #12
 1830 000c 4022     		movs	r2, #64
 1831 000e 0021     		movs	r1, #0
 1832 0010 1846     		mov	r0, r3
 1833 0012 FFF7FEFF 		bl	memset
 442:C:/Users/Administrator/.iotlink/sdk/IoT_LINK/iot_link/oc/oc_lwm2m/boudica150_oc\boudica150_oc.c ****     (void) snprintf(cmd,64,"AT+CGATT=%d\r",enable);
 1834              		.loc 1 442 12
 1835 0016 07F10C00 		add	r0, r7, #12
 1836 001a 7B68     		ldr	r3, [r7, #4]
 1837 001c 074A     		ldr	r2, .L102
 1838 001e 4021     		movs	r1, #64
 1839 0020 FFF7FEFF 		bl	snprintf
 443:C:/Users/Administrator/.iotlink/sdk/IoT_LINK/iot_link/oc/oc_lwm2m/boudica150_oc\boudica150_oc.c **** 
 444:C:/Users/Administrator/.iotlink/sdk/IoT_LINK/iot_link/oc/oc_lwm2m/boudica150_oc\boudica150_oc.c ****     ret = boudica150_atcmd(cmd,"OK");
 1840              		.loc 1 444 11
 1841 0024 07F10C03 		add	r3, r7, #12
 1842 0028 0549     		ldr	r1, .L102+4
 1843 002a 1846     		mov	r0, r3
 1844 002c FFF7FEFF 		bl	boudica150_atcmd
 1845 0030 F864     		str	r0, [r7, #76]
ARM GAS  C:\Users\ADMINI~1\AppData\Local\Temp\cctemkqi.s 			page 42


 445:C:/Users/Administrator/.iotlink/sdk/IoT_LINK/iot_link/oc/oc_lwm2m/boudica150_oc\boudica150_oc.c **** 
 446:C:/Users/Administrator/.iotlink/sdk/IoT_LINK/iot_link/oc/oc_lwm2m/boudica150_oc\boudica150_oc.c ****     return ret;
 1846              		.loc 1 446 12
 1847 0032 FB6C     		ldr	r3, [r7, #76]
 447:C:/Users/Administrator/.iotlink/sdk/IoT_LINK/iot_link/oc/oc_lwm2m/boudica150_oc\boudica150_oc.c **** }
 1848              		.loc 1 447 1
 1849 0034 1846     		mov	r0, r3
 1850 0036 5037     		adds	r7, r7, #80
 1851              	.LCFI76:
 1852              		.cfi_def_cfa_offset 8
 1853 0038 BD46     		mov	sp, r7
 1854              	.LCFI77:
 1855              		.cfi_def_cfa_register 13
 1856              		@ sp needed
 1857 003a 80BD     		pop	{r7, pc}
 1858              	.L103:
 1859              		.align	2
 1860              	.L102:
 1861 003c E4010000 		.word	.LC28
 1862 0040 14000000 		.word	.LC2
 1863              		.cfi_endproc
 1864              	.LFE18:
 1866              		.section	.rodata
 1867 01f1 000000   		.align	2
 1868              	.LC29:
 1869 01f4 41542B4E 		.ascii	"AT+NNMI=%d\015\000"
 1869      4E4D493D 
 1869      25640D00 
 1870              		.section	.text.boudica150_set_nnmi,"ax",%progbits
 1871              		.align	1
 1872              		.syntax unified
 1873              		.thumb
 1874              		.thumb_func
 1875              		.fpu fpv4-sp-d16
 1877              	boudica150_set_nnmi:
 1878              	.LFB19:
 448:C:/Users/Administrator/.iotlink/sdk/IoT_LINK/iot_link/oc/oc_lwm2m/boudica150_oc\boudica150_oc.c **** 
 449:C:/Users/Administrator/.iotlink/sdk/IoT_LINK/iot_link/oc/oc_lwm2m/boudica150_oc\boudica150_oc.c **** //enable the NNMI
 450:C:/Users/Administrator/.iotlink/sdk/IoT_LINK/iot_link/oc/oc_lwm2m/boudica150_oc\boudica150_oc.c **** static bool_t boudica150_set_nnmi(int enable)  //unit second
 451:C:/Users/Administrator/.iotlink/sdk/IoT_LINK/iot_link/oc/oc_lwm2m/boudica150_oc\boudica150_oc.c **** {
 1879              		.loc 1 451 1
 1880              		.cfi_startproc
 1881              		@ args = 0, pretend = 0, frame = 80
 1882              		@ frame_needed = 1, uses_anonymous_args = 0
 1883 0000 80B5     		push	{r7, lr}
 1884              	.LCFI78:
 1885              		.cfi_def_cfa_offset 8
 1886              		.cfi_offset 7, -8
 1887              		.cfi_offset 14, -4
 1888 0002 94B0     		sub	sp, sp, #80
 1889              	.LCFI79:
 1890              		.cfi_def_cfa_offset 88
 1891 0004 00AF     		add	r7, sp, #0
 1892              	.LCFI80:
 1893              		.cfi_def_cfa_register 7
 1894 0006 7860     		str	r0, [r7, #4]
 452:C:/Users/Administrator/.iotlink/sdk/IoT_LINK/iot_link/oc/oc_lwm2m/boudica150_oc\boudica150_oc.c ****     bool_t ret ;
ARM GAS  C:\Users\ADMINI~1\AppData\Local\Temp\cctemkqi.s 			page 43


 453:C:/Users/Administrator/.iotlink/sdk/IoT_LINK/iot_link/oc/oc_lwm2m/boudica150_oc\boudica150_oc.c ****     char cmd[64];
 454:C:/Users/Administrator/.iotlink/sdk/IoT_LINK/iot_link/oc/oc_lwm2m/boudica150_oc\boudica150_oc.c **** 
 455:C:/Users/Administrator/.iotlink/sdk/IoT_LINK/iot_link/oc/oc_lwm2m/boudica150_oc\boudica150_oc.c ****     (void) memset(cmd,0,64);
 1895              		.loc 1 455 12
 1896 0008 07F10C03 		add	r3, r7, #12
 1897 000c 4022     		movs	r2, #64
 1898 000e 0021     		movs	r1, #0
 1899 0010 1846     		mov	r0, r3
 1900 0012 FFF7FEFF 		bl	memset
 456:C:/Users/Administrator/.iotlink/sdk/IoT_LINK/iot_link/oc/oc_lwm2m/boudica150_oc\boudica150_oc.c ****     (void) snprintf(cmd,64,"AT+NNMI=%d\r",enable);
 1901              		.loc 1 456 12
 1902 0016 07F10C00 		add	r0, r7, #12
 1903 001a 7B68     		ldr	r3, [r7, #4]
 1904 001c 074A     		ldr	r2, .L106
 1905 001e 4021     		movs	r1, #64
 1906 0020 FFF7FEFF 		bl	snprintf
 457:C:/Users/Administrator/.iotlink/sdk/IoT_LINK/iot_link/oc/oc_lwm2m/boudica150_oc\boudica150_oc.c **** 
 458:C:/Users/Administrator/.iotlink/sdk/IoT_LINK/iot_link/oc/oc_lwm2m/boudica150_oc\boudica150_oc.c ****     ret = boudica150_atcmd(cmd,"OK");
 1907              		.loc 1 458 11
 1908 0024 07F10C03 		add	r3, r7, #12
 1909 0028 0549     		ldr	r1, .L106+4
 1910 002a 1846     		mov	r0, r3
 1911 002c FFF7FEFF 		bl	boudica150_atcmd
 1912 0030 F864     		str	r0, [r7, #76]
 459:C:/Users/Administrator/.iotlink/sdk/IoT_LINK/iot_link/oc/oc_lwm2m/boudica150_oc\boudica150_oc.c **** 
 460:C:/Users/Administrator/.iotlink/sdk/IoT_LINK/iot_link/oc/oc_lwm2m/boudica150_oc\boudica150_oc.c ****     return ret;
 1913              		.loc 1 460 12
 1914 0032 FB6C     		ldr	r3, [r7, #76]
 461:C:/Users/Administrator/.iotlink/sdk/IoT_LINK/iot_link/oc/oc_lwm2m/boudica150_oc\boudica150_oc.c **** }
 1915              		.loc 1 461 1
 1916 0034 1846     		mov	r0, r3
 1917 0036 5037     		adds	r7, r7, #80
 1918              	.LCFI81:
 1919              		.cfi_def_cfa_offset 8
 1920 0038 BD46     		mov	sp, r7
 1921              	.LCFI82:
 1922              		.cfi_def_cfa_register 13
 1923              		@ sp needed
 1924 003a 80BD     		pop	{r7, pc}
 1925              	.L107:
 1926              		.align	2
 1927              	.L106:
 1928 003c F4010000 		.word	.LC29
 1929 0040 14000000 		.word	.LC2
 1930              		.cfi_endproc
 1931              	.LFE19:
 1933              		.section	.rodata
 1934              		.align	2
 1935              	.LC30:
 1936 0200 5B25735D 		.ascii	"[%s][%u][%s:%d] GET THE LWM2M:ind:%d\012\015\015\012"
 1936      5B25755D 
 1936      5B25733A 
 1936      25645D20 
 1936      47455420 
 1937 0228 00       		.ascii	"\000"
 1938              		.section	.text.urc_qlwevtind,"ax",%progbits
 1939              		.align	1
ARM GAS  C:\Users\ADMINI~1\AppData\Local\Temp\cctemkqi.s 			page 44


 1940              		.syntax unified
 1941              		.thumb
 1942              		.thumb_func
 1943              		.fpu fpv4-sp-d16
 1945              	urc_qlwevtind:
 1946              	.LFB20:
 462:C:/Users/Administrator/.iotlink/sdk/IoT_LINK/iot_link/oc/oc_lwm2m/boudica150_oc\boudica150_oc.c **** 
 463:C:/Users/Administrator/.iotlink/sdk/IoT_LINK/iot_link/oc/oc_lwm2m/boudica150_oc\boudica150_oc.c **** 
 464:C:/Users/Administrator/.iotlink/sdk/IoT_LINK/iot_link/oc/oc_lwm2m/boudica150_oc\boudica150_oc.c **** //wait for the lwm2m observe
 465:C:/Users/Administrator/.iotlink/sdk/IoT_LINK/iot_link/oc/oc_lwm2m/boudica150_oc\boudica150_oc.c **** static int urc_qlwevtind(void *args,void *msg,size_t len)
 466:C:/Users/Administrator/.iotlink/sdk/IoT_LINK/iot_link/oc/oc_lwm2m/boudica150_oc\boudica150_oc.c **** {
 1947              		.loc 1 466 1
 1948              		.cfi_startproc
 1949              		@ args = 0, pretend = 0, frame = 32
 1950              		@ frame_needed = 1, uses_anonymous_args = 0
 1951 0000 90B5     		push	{r4, r7, lr}
 1952              	.LCFI83:
 1953              		.cfi_def_cfa_offset 12
 1954              		.cfi_offset 4, -12
 1955              		.cfi_offset 7, -8
 1956              		.cfi_offset 14, -4
 1957 0002 8BB0     		sub	sp, sp, #44
 1958              	.LCFI84:
 1959              		.cfi_def_cfa_offset 56
 1960 0004 02AF     		add	r7, sp, #8
 1961              	.LCFI85:
 1962              		.cfi_def_cfa 7, 48
 1963 0006 F860     		str	r0, [r7, #12]
 1964 0008 B960     		str	r1, [r7, #8]
 1965 000a 7A60     		str	r2, [r7, #4]
 467:C:/Users/Administrator/.iotlink/sdk/IoT_LINK/iot_link/oc/oc_lwm2m/boudica150_oc\boudica150_oc.c **** 
 468:C:/Users/Administrator/.iotlink/sdk/IoT_LINK/iot_link/oc/oc_lwm2m/boudica150_oc\boudica150_oc.c ****     char *data;
 469:C:/Users/Administrator/.iotlink/sdk/IoT_LINK/iot_link/oc/oc_lwm2m/boudica150_oc\boudica150_oc.c ****     int index_str;
 470:C:/Users/Administrator/.iotlink/sdk/IoT_LINK/iot_link/oc/oc_lwm2m/boudica150_oc\boudica150_oc.c ****     int ind;
 471:C:/Users/Administrator/.iotlink/sdk/IoT_LINK/iot_link/oc/oc_lwm2m/boudica150_oc\boudica150_oc.c **** 
 472:C:/Users/Administrator/.iotlink/sdk/IoT_LINK/iot_link/oc/oc_lwm2m/boudica150_oc\boudica150_oc.c ****     data = msg;
 1966              		.loc 1 472 10
 1967 000c BB68     		ldr	r3, [r7, #8]
 1968 000e FB61     		str	r3, [r7, #28]
 473:C:/Users/Administrator/.iotlink/sdk/IoT_LINK/iot_link/oc/oc_lwm2m/boudica150_oc\boudica150_oc.c ****     index_str = strlen(cn_urc_qlwevtind);
 1969              		.loc 1 473 15
 1970 0010 0D23     		movs	r3, #13
 1971 0012 BB61     		str	r3, [r7, #24]
 474:C:/Users/Administrator/.iotlink/sdk/IoT_LINK/iot_link/oc/oc_lwm2m/boudica150_oc\boudica150_oc.c **** 
 475:C:/Users/Administrator/.iotlink/sdk/IoT_LINK/iot_link/oc/oc_lwm2m/boudica150_oc\boudica150_oc.c ****     if(len > index_str)
 1972              		.loc 1 475 12
 1973 0014 BB69     		ldr	r3, [r7, #24]
 1974              		.loc 1 475 7
 1975 0016 7A68     		ldr	r2, [r7, #4]
 1976 0018 9A42     		cmp	r2, r3
 1977 001a 23D9     		bls	.L109
 476:C:/Users/Administrator/.iotlink/sdk/IoT_LINK/iot_link/oc/oc_lwm2m/boudica150_oc\boudica150_oc.c ****     {
 477:C:/Users/Administrator/.iotlink/sdk/IoT_LINK/iot_link/oc/oc_lwm2m/boudica150_oc\boudica150_oc.c ****         ind = data[index_str]-'0';
 1978              		.loc 1 477 19
 1979 001c BB69     		ldr	r3, [r7, #24]
 1980 001e FA69     		ldr	r2, [r7, #28]
 1981 0020 1344     		add	r3, r3, r2
ARM GAS  C:\Users\ADMINI~1\AppData\Local\Temp\cctemkqi.s 			page 45


 1982 0022 1B78     		ldrb	r3, [r3]	@ zero_extendqisi2
 1983              		.loc 1 477 13
 1984 0024 303B     		subs	r3, r3, #48
 1985 0026 7B61     		str	r3, [r7, #20]
 478:C:/Users/Administrator/.iotlink/sdk/IoT_LINK/iot_link/oc/oc_lwm2m/boudica150_oc\boudica150_oc.c ****         LINK_LOG_DEBUG("GET THE LWM2M:ind:%d\n\r",ind);
 1986              		.loc 1 478 9
 1987 0028 FFF7FEFF 		bl	link_log_level_get
 1988 002c 0346     		mov	r3, r0
 1989 002e 012B     		cmp	r3, #1
 1990 0030 11D8     		bhi	.L110
 1991              		.loc 1 478 9 is_stmt 0 discriminator 1
 1992 0032 0120     		movs	r0, #1
 1993 0034 FFF7FEFF 		bl	link_log_level_name
 1994 0038 0446     		mov	r4, r0
 1995 003a FFF7FEFF 		bl	osal_sys_time
 1996 003e 0246     		mov	r2, r0
 1997 0040 0B46     		mov	r3, r1
 1998 0042 7B69     		ldr	r3, [r7, #20]
 1999 0044 0193     		str	r3, [sp, #4]
 2000 0046 4FF4EF73 		mov	r3, #478
 2001 004a 0093     		str	r3, [sp]
 2002 004c 084B     		ldr	r3, .L112
 2003 004e 2146     		mov	r1, r4
 2004 0050 0848     		ldr	r0, .L112+4
 2005 0052 FFF7FEFF 		bl	printf
 2006              	.L110:
 479:C:/Users/Administrator/.iotlink/sdk/IoT_LINK/iot_link/oc/oc_lwm2m/boudica150_oc\boudica150_oc.c ****         if(ind == 3)
 2007              		.loc 1 479 11 is_stmt 1
 2008 0056 7B69     		ldr	r3, [r7, #20]
 2009 0058 032B     		cmp	r3, #3
 2010 005a 03D1     		bne	.L109
 480:C:/Users/Administrator/.iotlink/sdk/IoT_LINK/iot_link/oc/oc_lwm2m/boudica150_oc\boudica150_oc.c ****         {
 481:C:/Users/Administrator/.iotlink/sdk/IoT_LINK/iot_link/oc/oc_lwm2m/boudica150_oc\boudica150_oc.c ****             s_boudica150_oc_cb.lwm2m_observe = true;
 2011              		.loc 1 481 46
 2012 005c 064B     		ldr	r3, .L112+8
 2013 005e 0122     		movs	r2, #1
 2014 0060 C3F85421 		str	r2, [r3, #340]
 2015              	.L109:
 482:C:/Users/Administrator/.iotlink/sdk/IoT_LINK/iot_link/oc/oc_lwm2m/boudica150_oc\boudica150_oc.c ****         }
 483:C:/Users/Administrator/.iotlink/sdk/IoT_LINK/iot_link/oc/oc_lwm2m/boudica150_oc\boudica150_oc.c ****     }
 484:C:/Users/Administrator/.iotlink/sdk/IoT_LINK/iot_link/oc/oc_lwm2m/boudica150_oc\boudica150_oc.c ****     return len;
 2016              		.loc 1 484 12
 2017 0064 7B68     		ldr	r3, [r7, #4]
 485:C:/Users/Administrator/.iotlink/sdk/IoT_LINK/iot_link/oc/oc_lwm2m/boudica150_oc\boudica150_oc.c **** }
 2018              		.loc 1 485 1
 2019 0066 1846     		mov	r0, r3
 2020 0068 2437     		adds	r7, r7, #36
 2021              	.LCFI86:
 2022              		.cfi_def_cfa_offset 12
 2023 006a BD46     		mov	sp, r7
 2024              	.LCFI87:
 2025              		.cfi_def_cfa_register 13
 2026              		@ sp needed
 2027 006c 90BD     		pop	{r4, r7, pc}
 2028              	.L113:
 2029 006e 00BF     		.align	2
 2030              	.L112:
ARM GAS  C:\Users\ADMINI~1\AppData\Local\Temp\cctemkqi.s 			page 46


 2031 0070 00000000 		.word	__FUNCTION__.7158
 2032 0074 00020000 		.word	.LC30
 2033 0078 00000000 		.word	s_boudica150_oc_cb
 2034              		.cfi_endproc
 2035              	.LFE20:
 2037              		.section	.text.boudica150_check_observe,"ax",%progbits
 2038              		.align	1
 2039              		.syntax unified
 2040              		.thumb
 2041              		.thumb_func
 2042              		.fpu fpv4-sp-d16
 2044              	boudica150_check_observe:
 2045              	.LFB21:
 486:C:/Users/Administrator/.iotlink/sdk/IoT_LINK/iot_link/oc/oc_lwm2m/boudica150_oc\boudica150_oc.c **** 
 487:C:/Users/Administrator/.iotlink/sdk/IoT_LINK/iot_link/oc/oc_lwm2m/boudica150_oc\boudica150_oc.c **** 
 488:C:/Users/Administrator/.iotlink/sdk/IoT_LINK/iot_link/oc/oc_lwm2m/boudica150_oc\boudica150_oc.c **** //check the lwm2m server observed
 489:C:/Users/Administrator/.iotlink/sdk/IoT_LINK/iot_link/oc/oc_lwm2m/boudica150_oc\boudica150_oc.c **** static bool_t boudica150_check_observe(int time)  //unit second
 490:C:/Users/Administrator/.iotlink/sdk/IoT_LINK/iot_link/oc/oc_lwm2m/boudica150_oc\boudica150_oc.c **** {
 2046              		.loc 1 490 1
 2047              		.cfi_startproc
 2048              		@ args = 0, pretend = 0, frame = 16
 2049              		@ frame_needed = 1, uses_anonymous_args = 0
 2050 0000 80B5     		push	{r7, lr}
 2051              	.LCFI88:
 2052              		.cfi_def_cfa_offset 8
 2053              		.cfi_offset 7, -8
 2054              		.cfi_offset 14, -4
 2055 0002 84B0     		sub	sp, sp, #16
 2056              	.LCFI89:
 2057              		.cfi_def_cfa_offset 24
 2058 0004 00AF     		add	r7, sp, #0
 2059              	.LCFI90:
 2060              		.cfi_def_cfa_register 7
 2061 0006 7860     		str	r0, [r7, #4]
 491:C:/Users/Administrator/.iotlink/sdk/IoT_LINK/iot_link/oc/oc_lwm2m/boudica150_oc\boudica150_oc.c ****     //wait for the server observed
 492:C:/Users/Administrator/.iotlink/sdk/IoT_LINK/iot_link/oc/oc_lwm2m/boudica150_oc\boudica150_oc.c ****     bool_t ret = false;
 2062              		.loc 1 492 12
 2063 0008 0023     		movs	r3, #0
 2064 000a FB60     		str	r3, [r7, #12]
 493:C:/Users/Administrator/.iotlink/sdk/IoT_LINK/iot_link/oc/oc_lwm2m/boudica150_oc\boudica150_oc.c ****     int times;
 494:C:/Users/Administrator/.iotlink/sdk/IoT_LINK/iot_link/oc/oc_lwm2m/boudica150_oc\boudica150_oc.c **** 
 495:C:/Users/Administrator/.iotlink/sdk/IoT_LINK/iot_link/oc/oc_lwm2m/boudica150_oc\boudica150_oc.c ****     for(times =0;times <time;times++ )
 2065              		.loc 1 495 15
 2066 000c 0023     		movs	r3, #0
 2067 000e BB60     		str	r3, [r7, #8]
 2068              		.loc 1 495 5
 2069 0010 0EE0     		b	.L115
 2070              	.L118:
 496:C:/Users/Administrator/.iotlink/sdk/IoT_LINK/iot_link/oc/oc_lwm2m/boudica150_oc\boudica150_oc.c ****     {
 497:C:/Users/Administrator/.iotlink/sdk/IoT_LINK/iot_link/oc/oc_lwm2m/boudica150_oc\boudica150_oc.c ****         if(s_boudica150_oc_cb.lwm2m_observe )
 2071              		.loc 1 497 30
 2072 0012 0C4B     		ldr	r3, .L120
 2073 0014 D3F85431 		ldr	r3, [r3, #340]
 2074              		.loc 1 497 11
 2075 0018 002B     		cmp	r3, #0
 2076 001a 02D0     		beq	.L116
 498:C:/Users/Administrator/.iotlink/sdk/IoT_LINK/iot_link/oc/oc_lwm2m/boudica150_oc\boudica150_oc.c ****         {
ARM GAS  C:\Users\ADMINI~1\AppData\Local\Temp\cctemkqi.s 			page 47


 499:C:/Users/Administrator/.iotlink/sdk/IoT_LINK/iot_link/oc/oc_lwm2m/boudica150_oc\boudica150_oc.c ****             ret = true;
 2077              		.loc 1 499 17
 2078 001c 0123     		movs	r3, #1
 2079 001e FB60     		str	r3, [r7, #12]
 500:C:/Users/Administrator/.iotlink/sdk/IoT_LINK/iot_link/oc/oc_lwm2m/boudica150_oc\boudica150_oc.c ****             break;
 2080              		.loc 1 500 13
 2081 0020 0AE0     		b	.L117
 2082              	.L116:
 501:C:/Users/Administrator/.iotlink/sdk/IoT_LINK/iot_link/oc/oc_lwm2m/boudica150_oc\boudica150_oc.c ****         }
 502:C:/Users/Administrator/.iotlink/sdk/IoT_LINK/iot_link/oc/oc_lwm2m/boudica150_oc\boudica150_oc.c ****         osal_task_sleep(1000);
 2083              		.loc 1 502 9 discriminator 2
 2084 0022 4FF47A70 		mov	r0, #1000
 2085 0026 FFF7FEFF 		bl	osal_task_sleep
 495:C:/Users/Administrator/.iotlink/sdk/IoT_LINK/iot_link/oc/oc_lwm2m/boudica150_oc\boudica150_oc.c ****     {
 2086              		.loc 1 495 35 discriminator 2
 2087 002a BB68     		ldr	r3, [r7, #8]
 2088 002c 0133     		adds	r3, r3, #1
 2089 002e BB60     		str	r3, [r7, #8]
 2090              	.L115:
 495:C:/Users/Administrator/.iotlink/sdk/IoT_LINK/iot_link/oc/oc_lwm2m/boudica150_oc\boudica150_oc.c ****     {
 2091              		.loc 1 495 5 discriminator 1
 2092 0030 BA68     		ldr	r2, [r7, #8]
 2093 0032 7B68     		ldr	r3, [r7, #4]
 2094 0034 9A42     		cmp	r2, r3
 2095 0036 ECDB     		blt	.L118
 2096              	.L117:
 503:C:/Users/Administrator/.iotlink/sdk/IoT_LINK/iot_link/oc/oc_lwm2m/boudica150_oc\boudica150_oc.c ****     }
 504:C:/Users/Administrator/.iotlink/sdk/IoT_LINK/iot_link/oc/oc_lwm2m/boudica150_oc\boudica150_oc.c **** 
 505:C:/Users/Administrator/.iotlink/sdk/IoT_LINK/iot_link/oc/oc_lwm2m/boudica150_oc\boudica150_oc.c ****     return ret;
 2097              		.loc 1 505 12
 2098 0038 FB68     		ldr	r3, [r7, #12]
 506:C:/Users/Administrator/.iotlink/sdk/IoT_LINK/iot_link/oc/oc_lwm2m/boudica150_oc\boudica150_oc.c **** }
 2099              		.loc 1 506 1
 2100 003a 1846     		mov	r0, r3
 2101 003c 1037     		adds	r7, r7, #16
 2102              	.LCFI91:
 2103              		.cfi_def_cfa_offset 8
 2104 003e BD46     		mov	sp, r7
 2105              	.LCFI92:
 2106              		.cfi_def_cfa_register 13
 2107              		@ sp needed
 2108 0040 80BD     		pop	{r7, pc}
 2109              	.L121:
 2110 0042 00BF     		.align	2
 2111              	.L120:
 2112 0044 00000000 		.word	s_boudica150_oc_cb
 2113              		.cfi_endproc
 2114              	.LFE21:
 2116              		.section	.rodata
 2117 0229 000000   		.align	2
 2118              	.LC31:
 2119 022c 43474154 		.ascii	"CGATT:1\000"
 2119      543A3100 
 2120              		.align	2
 2121              	.LC32:
 2122 0234 41542B43 		.ascii	"AT+CGATT?\015\000"
 2122      47415454 
ARM GAS  C:\Users\ADMINI~1\AppData\Local\Temp\cctemkqi.s 			page 48


 2122      3F0D00
 2123              		.section	.text.boudica150_check_netattach,"ax",%progbits
 2124              		.align	1
 2125              		.syntax unified
 2126              		.thumb
 2127              		.thumb_func
 2128              		.fpu fpv4-sp-d16
 2130              	boudica150_check_netattach:
 2131              	.LFB22:
 507:C:/Users/Administrator/.iotlink/sdk/IoT_LINK/iot_link/oc/oc_lwm2m/boudica150_oc\boudica150_oc.c **** 
 508:C:/Users/Administrator/.iotlink/sdk/IoT_LINK/iot_link/oc/oc_lwm2m/boudica150_oc\boudica150_oc.c **** //check if attached to the network
 509:C:/Users/Administrator/.iotlink/sdk/IoT_LINK/iot_link/oc/oc_lwm2m/boudica150_oc\boudica150_oc.c **** static bool_t boudica150_check_netattach(int time)  //unit second
 510:C:/Users/Administrator/.iotlink/sdk/IoT_LINK/iot_link/oc/oc_lwm2m/boudica150_oc\boudica150_oc.c **** {
 2132              		.loc 1 510 1
 2133              		.cfi_startproc
 2134              		@ args = 0, pretend = 0, frame = 16
 2135              		@ frame_needed = 1, uses_anonymous_args = 0
 2136 0000 80B5     		push	{r7, lr}
 2137              	.LCFI93:
 2138              		.cfi_def_cfa_offset 8
 2139              		.cfi_offset 7, -8
 2140              		.cfi_offset 14, -4
 2141 0002 84B0     		sub	sp, sp, #16
 2142              	.LCFI94:
 2143              		.cfi_def_cfa_offset 24
 2144 0004 00AF     		add	r7, sp, #0
 2145              	.LCFI95:
 2146              		.cfi_def_cfa_register 7
 2147 0006 7860     		str	r0, [r7, #4]
 511:C:/Users/Administrator/.iotlink/sdk/IoT_LINK/iot_link/oc/oc_lwm2m/boudica150_oc\boudica150_oc.c ****     //wait for the server observed
 512:C:/Users/Administrator/.iotlink/sdk/IoT_LINK/iot_link/oc/oc_lwm2m/boudica150_oc\boudica150_oc.c ****     bool_t ret = false;
 2148              		.loc 1 512 12
 2149 0008 0023     		movs	r3, #0
 2150 000a FB60     		str	r3, [r7, #12]
 513:C:/Users/Administrator/.iotlink/sdk/IoT_LINK/iot_link/oc/oc_lwm2m/boudica150_oc\boudica150_oc.c ****     int times;
 514:C:/Users/Administrator/.iotlink/sdk/IoT_LINK/iot_link/oc/oc_lwm2m/boudica150_oc\boudica150_oc.c **** 
 515:C:/Users/Administrator/.iotlink/sdk/IoT_LINK/iot_link/oc/oc_lwm2m/boudica150_oc\boudica150_oc.c ****     for(times =0;times <time;times++ )
 2151              		.loc 1 515 15
 2152 000c 0023     		movs	r3, #0
 2153 000e BB60     		str	r3, [r7, #8]
 2154              		.loc 1 515 5
 2155 0010 10E0     		b	.L123
 2156              	.L126:
 516:C:/Users/Administrator/.iotlink/sdk/IoT_LINK/iot_link/oc/oc_lwm2m/boudica150_oc\boudica150_oc.c ****     {
 517:C:/Users/Administrator/.iotlink/sdk/IoT_LINK/iot_link/oc/oc_lwm2m/boudica150_oc\boudica150_oc.c ****         if(boudica150_atcmd("AT+CGATT?\r", "CGATT:1"))
 2157              		.loc 1 517 12
 2158 0012 0D49     		ldr	r1, .L128
 2159 0014 0D48     		ldr	r0, .L128+4
 2160 0016 FFF7FEFF 		bl	boudica150_atcmd
 2161 001a 0346     		mov	r3, r0
 2162              		.loc 1 517 11
 2163 001c 002B     		cmp	r3, #0
 2164 001e 02D0     		beq	.L124
 518:C:/Users/Administrator/.iotlink/sdk/IoT_LINK/iot_link/oc/oc_lwm2m/boudica150_oc\boudica150_oc.c ****         {
 519:C:/Users/Administrator/.iotlink/sdk/IoT_LINK/iot_link/oc/oc_lwm2m/boudica150_oc\boudica150_oc.c ****             ret = true;
 2165              		.loc 1 519 17
 2166 0020 0123     		movs	r3, #1
ARM GAS  C:\Users\ADMINI~1\AppData\Local\Temp\cctemkqi.s 			page 49


 2167 0022 FB60     		str	r3, [r7, #12]
 520:C:/Users/Administrator/.iotlink/sdk/IoT_LINK/iot_link/oc/oc_lwm2m/boudica150_oc\boudica150_oc.c ****             break;
 2168              		.loc 1 520 13
 2169 0024 0AE0     		b	.L125
 2170              	.L124:
 521:C:/Users/Administrator/.iotlink/sdk/IoT_LINK/iot_link/oc/oc_lwm2m/boudica150_oc\boudica150_oc.c ****         }
 522:C:/Users/Administrator/.iotlink/sdk/IoT_LINK/iot_link/oc/oc_lwm2m/boudica150_oc\boudica150_oc.c ****         osal_task_sleep(1000);
 2171              		.loc 1 522 9 discriminator 2
 2172 0026 4FF47A70 		mov	r0, #1000
 2173 002a FFF7FEFF 		bl	osal_task_sleep
 515:C:/Users/Administrator/.iotlink/sdk/IoT_LINK/iot_link/oc/oc_lwm2m/boudica150_oc\boudica150_oc.c ****     {
 2174              		.loc 1 515 35 discriminator 2
 2175 002e BB68     		ldr	r3, [r7, #8]
 2176 0030 0133     		adds	r3, r3, #1
 2177 0032 BB60     		str	r3, [r7, #8]
 2178              	.L123:
 515:C:/Users/Administrator/.iotlink/sdk/IoT_LINK/iot_link/oc/oc_lwm2m/boudica150_oc\boudica150_oc.c ****     {
 2179              		.loc 1 515 5 discriminator 1
 2180 0034 BA68     		ldr	r2, [r7, #8]
 2181 0036 7B68     		ldr	r3, [r7, #4]
 2182 0038 9A42     		cmp	r2, r3
 2183 003a EADB     		blt	.L126
 2184              	.L125:
 523:C:/Users/Administrator/.iotlink/sdk/IoT_LINK/iot_link/oc/oc_lwm2m/boudica150_oc\boudica150_oc.c ****     }
 524:C:/Users/Administrator/.iotlink/sdk/IoT_LINK/iot_link/oc/oc_lwm2m/boudica150_oc\boudica150_oc.c **** 
 525:C:/Users/Administrator/.iotlink/sdk/IoT_LINK/iot_link/oc/oc_lwm2m/boudica150_oc\boudica150_oc.c ****     return ret;
 2185              		.loc 1 525 12
 2186 003c FB68     		ldr	r3, [r7, #12]
 526:C:/Users/Administrator/.iotlink/sdk/IoT_LINK/iot_link/oc/oc_lwm2m/boudica150_oc\boudica150_oc.c **** }
 2187              		.loc 1 526 1
 2188 003e 1846     		mov	r0, r3
 2189 0040 1037     		adds	r7, r7, #16
 2190              	.LCFI96:
 2191              		.cfi_def_cfa_offset 8
 2192 0042 BD46     		mov	sp, r7
 2193              	.LCFI97:
 2194              		.cfi_def_cfa_register 13
 2195              		@ sp needed
 2196 0044 80BD     		pop	{r7, pc}
 2197              	.L129:
 2198 0046 00BF     		.align	2
 2199              	.L128:
 2200 0048 2C020000 		.word	.LC31
 2201 004c 34020000 		.word	.LC32
 2202              		.cfi_endproc
 2203              	.LFE22:
 2205              		.section	.rodata
 2206 023f 00       		.align	2
 2207              	.LC33:
 2208 0240 4155544F 		.ascii	"AUTOCONNECT,TRUE\000"
 2208      434F4E4E 
 2208      4543542C 
 2208      54525545 
 2208      00
 2209 0251 000000   		.align	2
 2210              	.LC34:
 2211 0254 4155544F 		.ascii	"AUTOCONNECT,FALSE\000"
ARM GAS  C:\Users\ADMINI~1\AppData\Local\Temp\cctemkqi.s 			page 50


 2211      434F4E4E 
 2211      4543542C 
 2211      46414C53 
 2211      4500
 2212 0266 0000     		.align	2
 2213              	.LC35:
 2214 0268 2B4E434F 		.ascii	"+NCONFIG\000"
 2214      4E464947 
 2214      00
 2215 0271 000000   		.align	2
 2216              	.LC36:
 2217 0274 41542B4E 		.ascii	"AT+NCONFIG?\015\000"
 2217      434F4E46 
 2217      49473F0D 
 2217      00
 2218 0281 000000   		.align	2
 2219              	.LC37:
 2220 0284 41542B4E 		.ascii	"AT+NCONFIG=%s\015\000"
 2220      434F4E46 
 2220      49473D25 
 2220      730D00
 2221              		.section	.text.boudica150_set_autoconnect,"ax",%progbits
 2222              		.align	1
 2223              		.syntax unified
 2224              		.thumb
 2225              		.thumb_func
 2226              		.fpu fpv4-sp-d16
 2228              	boudica150_set_autoconnect:
 2229              	.LFB23:
 527:C:/Users/Administrator/.iotlink/sdk/IoT_LINK/iot_link/oc/oc_lwm2m/boudica150_oc\boudica150_oc.c **** 
 528:C:/Users/Administrator/.iotlink/sdk/IoT_LINK/iot_link/oc/oc_lwm2m/boudica150_oc\boudica150_oc.c **** //set the autoconfig mode
 529:C:/Users/Administrator/.iotlink/sdk/IoT_LINK/iot_link/oc/oc_lwm2m/boudica150_oc\boudica150_oc.c **** static bool_t boudica150_set_autoconnect(int enable)
 530:C:/Users/Administrator/.iotlink/sdk/IoT_LINK/iot_link/oc/oc_lwm2m/boudica150_oc\boudica150_oc.c **** {
 2230              		.loc 1 530 1
 2231              		.cfi_startproc
 2232              		@ args = 0, pretend = 0, frame = 144
 2233              		@ frame_needed = 1, uses_anonymous_args = 0
 2234 0000 80B5     		push	{r7, lr}
 2235              	.LCFI98:
 2236              		.cfi_def_cfa_offset 8
 2237              		.cfi_offset 7, -8
 2238              		.cfi_offset 14, -4
 2239 0002 A4B0     		sub	sp, sp, #144
 2240              	.LCFI99:
 2241              		.cfi_def_cfa_offset 152
 2242 0004 00AF     		add	r7, sp, #0
 2243              	.LCFI100:
 2244              		.cfi_def_cfa_register 7
 2245 0006 7860     		str	r0, [r7, #4]
 531:C:/Users/Administrator/.iotlink/sdk/IoT_LINK/iot_link/oc/oc_lwm2m/boudica150_oc\boudica150_oc.c ****     char cmd[64];
 532:C:/Users/Administrator/.iotlink/sdk/IoT_LINK/iot_link/oc/oc_lwm2m/boudica150_oc\boudica150_oc.c ****     char resp[64];
 533:C:/Users/Administrator/.iotlink/sdk/IoT_LINK/iot_link/oc/oc_lwm2m/boudica150_oc\boudica150_oc.c ****     bool_t ret = true;
 2246              		.loc 1 533 12
 2247 0008 0123     		movs	r3, #1
 2248 000a C7F88C30 		str	r3, [r7, #140]
 534:C:/Users/Administrator/.iotlink/sdk/IoT_LINK/iot_link/oc/oc_lwm2m/boudica150_oc\boudica150_oc.c ****     const char *mode;
 535:C:/Users/Administrator/.iotlink/sdk/IoT_LINK/iot_link/oc/oc_lwm2m/boudica150_oc\boudica150_oc.c **** 
ARM GAS  C:\Users\ADMINI~1\AppData\Local\Temp\cctemkqi.s 			page 51


 536:C:/Users/Administrator/.iotlink/sdk/IoT_LINK/iot_link/oc/oc_lwm2m/boudica150_oc\boudica150_oc.c ****     if(enable)
 2249              		.loc 1 536 7
 2250 000e 7B68     		ldr	r3, [r7, #4]
 2251 0010 002B     		cmp	r3, #0
 2252 0012 03D0     		beq	.L131
 537:C:/Users/Administrator/.iotlink/sdk/IoT_LINK/iot_link/oc/oc_lwm2m/boudica150_oc\boudica150_oc.c ****     {
 538:C:/Users/Administrator/.iotlink/sdk/IoT_LINK/iot_link/oc/oc_lwm2m/boudica150_oc\boudica150_oc.c ****         mode = "AUTOCONNECT,TRUE";
 2253              		.loc 1 538 14
 2254 0014 234B     		ldr	r3, .L137
 2255 0016 C7F88830 		str	r3, [r7, #136]
 2256 001a 02E0     		b	.L132
 2257              	.L131:
 539:C:/Users/Administrator/.iotlink/sdk/IoT_LINK/iot_link/oc/oc_lwm2m/boudica150_oc\boudica150_oc.c ****     }
 540:C:/Users/Administrator/.iotlink/sdk/IoT_LINK/iot_link/oc/oc_lwm2m/boudica150_oc\boudica150_oc.c ****     else
 541:C:/Users/Administrator/.iotlink/sdk/IoT_LINK/iot_link/oc/oc_lwm2m/boudica150_oc\boudica150_oc.c ****     {
 542:C:/Users/Administrator/.iotlink/sdk/IoT_LINK/iot_link/oc/oc_lwm2m/boudica150_oc\boudica150_oc.c ****         mode = "AUTOCONNECT,FALSE";
 2258              		.loc 1 542 14
 2259 001c 224B     		ldr	r3, .L137+4
 2260 001e C7F88830 		str	r3, [r7, #136]
 2261              	.L132:
 543:C:/Users/Administrator/.iotlink/sdk/IoT_LINK/iot_link/oc/oc_lwm2m/boudica150_oc\boudica150_oc.c ****     }
 544:C:/Users/Administrator/.iotlink/sdk/IoT_LINK/iot_link/oc/oc_lwm2m/boudica150_oc\boudica150_oc.c **** 
 545:C:/Users/Administrator/.iotlink/sdk/IoT_LINK/iot_link/oc/oc_lwm2m/boudica150_oc\boudica150_oc.c ****     (void) memset(resp,0,64);
 2262              		.loc 1 545 12
 2263 0022 07F10803 		add	r3, r7, #8
 2264 0026 4022     		movs	r2, #64
 2265 0028 0021     		movs	r1, #0
 2266 002a 1846     		mov	r0, r3
 2267 002c FFF7FEFF 		bl	memset
 546:C:/Users/Administrator/.iotlink/sdk/IoT_LINK/iot_link/oc/oc_lwm2m/boudica150_oc\boudica150_oc.c ****     ret = boudica150_atcmd_response("AT+NCONFIG?\r","+NCONFIG",resp,64);
 2268              		.loc 1 546 11
 2269 0030 07F10802 		add	r2, r7, #8
 2270 0034 4023     		movs	r3, #64
 2271 0036 1D49     		ldr	r1, .L137+8
 2272 0038 1D48     		ldr	r0, .L137+12
 2273 003a FFF7FEFF 		bl	boudica150_atcmd_response
 2274 003e C7F88C00 		str	r0, [r7, #140]
 547:C:/Users/Administrator/.iotlink/sdk/IoT_LINK/iot_link/oc/oc_lwm2m/boudica150_oc\boudica150_oc.c ****     if((false == ret)||(NULL == strstr(resp,mode)))//which means we need to set it
 2275              		.loc 1 547 7
 2276 0042 D7F88C30 		ldr	r3, [r7, #140]
 2277 0046 002B     		cmp	r3, #0
 2278 0048 09D0     		beq	.L133
 2279              		.loc 1 547 33 discriminator 1
 2280 004a 07F10803 		add	r3, r7, #8
 2281 004e D7F88810 		ldr	r1, [r7, #136]
 2282 0052 1846     		mov	r0, r3
 2283 0054 FFF7FEFF 		bl	strstr
 2284 0058 0346     		mov	r3, r0
 2285              		.loc 1 547 22 discriminator 1
 2286 005a 002B     		cmp	r3, #0
 2287 005c 19D1     		bne	.L134
 2288              	.L133:
 548:C:/Users/Administrator/.iotlink/sdk/IoT_LINK/iot_link/oc/oc_lwm2m/boudica150_oc\boudica150_oc.c ****     {
 549:C:/Users/Administrator/.iotlink/sdk/IoT_LINK/iot_link/oc/oc_lwm2m/boudica150_oc\boudica150_oc.c ****         (void) memset(cmd,0,64);
 2289              		.loc 1 549 16
 2290 005e 07F14803 		add	r3, r7, #72
 2291 0062 4022     		movs	r2, #64
ARM GAS  C:\Users\ADMINI~1\AppData\Local\Temp\cctemkqi.s 			page 52


 2292 0064 0021     		movs	r1, #0
 2293 0066 1846     		mov	r0, r3
 2294 0068 FFF7FEFF 		bl	memset
 550:C:/Users/Administrator/.iotlink/sdk/IoT_LINK/iot_link/oc/oc_lwm2m/boudica150_oc\boudica150_oc.c ****         (void) snprintf(cmd,64,"AT+NCONFIG=%s\r",mode);
 2295              		.loc 1 550 16
 2296 006c 07F14800 		add	r0, r7, #72
 2297 0070 D7F88830 		ldr	r3, [r7, #136]
 2298 0074 0F4A     		ldr	r2, .L137+16
 2299 0076 4021     		movs	r1, #64
 2300 0078 FFF7FEFF 		bl	snprintf
 551:C:/Users/Administrator/.iotlink/sdk/IoT_LINK/iot_link/oc/oc_lwm2m/boudica150_oc\boudica150_oc.c ****         ret = boudica150_atcmd(cmd,"OK");
 2301              		.loc 1 551 15
 2302 007c 07F14803 		add	r3, r7, #72
 2303 0080 0D49     		ldr	r1, .L137+20
 2304 0082 1846     		mov	r0, r3
 2305 0084 FFF7FEFF 		bl	boudica150_atcmd
 2306 0088 C7F88C00 		str	r0, [r7, #140]
 552:C:/Users/Administrator/.iotlink/sdk/IoT_LINK/iot_link/oc/oc_lwm2m/boudica150_oc\boudica150_oc.c **** 
 553:C:/Users/Administrator/.iotlink/sdk/IoT_LINK/iot_link/oc/oc_lwm2m/boudica150_oc\boudica150_oc.c ****         boudica150_reboot();
 2307              		.loc 1 553 9
 2308 008c FFF7FEFF 		bl	boudica150_reboot
 2309 0090 02E0     		b	.L135
 2310              	.L134:
 554:C:/Users/Administrator/.iotlink/sdk/IoT_LINK/iot_link/oc/oc_lwm2m/boudica150_oc\boudica150_oc.c ****     }
 555:C:/Users/Administrator/.iotlink/sdk/IoT_LINK/iot_link/oc/oc_lwm2m/boudica150_oc\boudica150_oc.c ****     else
 556:C:/Users/Administrator/.iotlink/sdk/IoT_LINK/iot_link/oc/oc_lwm2m/boudica150_oc\boudica150_oc.c ****     {
 557:C:/Users/Administrator/.iotlink/sdk/IoT_LINK/iot_link/oc/oc_lwm2m/boudica150_oc\boudica150_oc.c ****         ret = true;  //we need not to set
 2311              		.loc 1 557 13
 2312 0092 0123     		movs	r3, #1
 2313 0094 C7F88C30 		str	r3, [r7, #140]
 2314              	.L135:
 558:C:/Users/Administrator/.iotlink/sdk/IoT_LINK/iot_link/oc/oc_lwm2m/boudica150_oc\boudica150_oc.c ****     }
 559:C:/Users/Administrator/.iotlink/sdk/IoT_LINK/iot_link/oc/oc_lwm2m/boudica150_oc\boudica150_oc.c **** 
 560:C:/Users/Administrator/.iotlink/sdk/IoT_LINK/iot_link/oc/oc_lwm2m/boudica150_oc\boudica150_oc.c ****     return ret;
 2315              		.loc 1 560 12
 2316 0098 D7F88C30 		ldr	r3, [r7, #140]
 561:C:/Users/Administrator/.iotlink/sdk/IoT_LINK/iot_link/oc/oc_lwm2m/boudica150_oc\boudica150_oc.c **** }
 2317              		.loc 1 561 1
 2318 009c 1846     		mov	r0, r3
 2319 009e 9037     		adds	r7, r7, #144
 2320              	.LCFI101:
 2321              		.cfi_def_cfa_offset 8
 2322 00a0 BD46     		mov	sp, r7
 2323              	.LCFI102:
 2324              		.cfi_def_cfa_register 13
 2325              		@ sp needed
 2326 00a2 80BD     		pop	{r7, pc}
 2327              	.L138:
 2328              		.align	2
 2329              	.L137:
 2330 00a4 40020000 		.word	.LC33
 2331 00a8 54020000 		.word	.LC34
 2332 00ac 68020000 		.word	.LC35
 2333 00b0 74020000 		.word	.LC36
 2334 00b4 84020000 		.word	.LC37
 2335 00b8 14000000 		.word	.LC2
 2336              		.cfi_endproc
ARM GAS  C:\Users\ADMINI~1\AppData\Local\Temp\cctemkqi.s 			page 53


 2337              	.LFE23:
 2339              		.section	.rodata
 2340 0293 00       		.align	2
 2341              	.LC38:
 2342 0294 0D0A2B51 		.ascii	"\015\012+QLWEVTIND:\000"
 2342      4C574556 
 2342      54494E44 
 2342      3A00
 2343 02a2 0000     		.align	2
 2344              	.LC39:
 2345 02a4 716C7765 		.ascii	"qlwevind\000"
 2345      76696E64 
 2345      00
 2346 02ad 000000   		.align	2
 2347              	.LC40:
 2348 02b0 0D0A2B4E 		.ascii	"\015\012+NNMI:\000"
 2348      4E4D493A 
 2348      00
 2349 02b9 000000   		.align	2
 2350              	.LC41:
 2351 02bc 626F7564 		.ascii	"boudica150rcv\000"
 2351      69636131 
 2351      35307263 
 2351      7600
 2352 02ca 0000     		.align	2
 2353              	.LC42:
 2354 02cc 5B25735D 		.ascii	"[%s][%u][%s:%d] NB MODULE RXTX READY NOW\012\015\015"
 2354      5B25755D 
 2354      5B25733A 
 2354      25645D20 
 2354      4E42204D 
 2355 02f7 0A00     		.ascii	"\012\000"
 2356              		.section	.text.boudica150_boot,"ax",%progbits
 2357              		.align	1
 2358              		.syntax unified
 2359              		.thumb
 2360              		.thumb_func
 2361              		.fpu fpv4-sp-d16
 2363              	boudica150_boot:
 2364              	.LFB24:
 562:C:/Users/Administrator/.iotlink/sdk/IoT_LINK/iot_link/oc/oc_lwm2m/boudica150_oc\boudica150_oc.c **** 
 563:C:/Users/Administrator/.iotlink/sdk/IoT_LINK/iot_link/oc/oc_lwm2m/boudica150_oc\boudica150_oc.c **** //use this function to set the band,which corresponding with YUNYINGSHANG AND MOZU
 564:C:/Users/Administrator/.iotlink/sdk/IoT_LINK/iot_link/oc/oc_lwm2m/boudica150_oc\boudica150_oc.c **** static bool_t boudica150_boot(const char *plmn, const char *apn, const char *bands,const char *serv
 565:C:/Users/Administrator/.iotlink/sdk/IoT_LINK/iot_link/oc/oc_lwm2m/boudica150_oc\boudica150_oc.c **** {
 2365              		.loc 1 565 1
 2366              		.cfi_startproc
 2367              		@ args = 4, pretend = 0, frame = 16
 2368              		@ frame_needed = 1, uses_anonymous_args = 0
 2369 0000 90B5     		push	{r4, r7, lr}
 2370              	.LCFI103:
 2371              		.cfi_def_cfa_offset 12
 2372              		.cfi_offset 4, -12
 2373              		.cfi_offset 7, -8
 2374              		.cfi_offset 14, -4
 2375 0002 87B0     		sub	sp, sp, #28
 2376              	.LCFI104:
 2377              		.cfi_def_cfa_offset 40
ARM GAS  C:\Users\ADMINI~1\AppData\Local\Temp\cctemkqi.s 			page 54


 2378 0004 02AF     		add	r7, sp, #8
 2379              	.LCFI105:
 2380              		.cfi_def_cfa 7, 32
 2381 0006 F860     		str	r0, [r7, #12]
 2382 0008 B960     		str	r1, [r7, #8]
 2383 000a 7A60     		str	r2, [r7, #4]
 2384 000c 3B60     		str	r3, [r7]
 566:C:/Users/Administrator/.iotlink/sdk/IoT_LINK/iot_link/oc/oc_lwm2m/boudica150_oc\boudica150_oc.c ****     //(void) memset(&s_boudica150_oc_cb,0,sizeof(s_boudica150_oc_cb));
 567:C:/Users/Administrator/.iotlink/sdk/IoT_LINK/iot_link/oc/oc_lwm2m/boudica150_oc\boudica150_oc.c ****     at_oobregister("qlwevind",cn_urc_qlwevtind,strlen(cn_urc_qlwevtind),urc_qlwevtind,NULL);
 2385              		.loc 1 567 5
 2386 000e 0023     		movs	r3, #0
 2387 0010 0093     		str	r3, [sp]
 2388 0012 314B     		ldr	r3, .L149
 2389 0014 0D22     		movs	r2, #13
 2390 0016 3149     		ldr	r1, .L149+4
 2391 0018 3148     		ldr	r0, .L149+8
 2392 001a FFF7FEFF 		bl	at_oobregister
 568:C:/Users/Administrator/.iotlink/sdk/IoT_LINK/iot_link/oc/oc_lwm2m/boudica150_oc\boudica150_oc.c ****     at_oobregister("boudica150rcv",cn_boudica150_rcvindex,strlen(cn_boudica150_rcvindex),boudica150
 2393              		.loc 1 568 5
 2394 001e 0023     		movs	r3, #0
 2395 0020 0093     		str	r3, [sp]
 2396 0022 304B     		ldr	r3, .L149+12
 2397 0024 0822     		movs	r2, #8
 2398 0026 3049     		ldr	r1, .L149+16
 2399 0028 3048     		ldr	r0, .L149+20
 2400 002a FFF7FEFF 		bl	at_oobregister
 2401              	.L144:
 569:C:/Users/Administrator/.iotlink/sdk/IoT_LINK/iot_link/oc/oc_lwm2m/boudica150_oc\boudica150_oc.c **** 
 570:C:/Users/Administrator/.iotlink/sdk/IoT_LINK/iot_link/oc/oc_lwm2m/boudica150_oc\boudica150_oc.c ****     while(1)
 571:C:/Users/Administrator/.iotlink/sdk/IoT_LINK/iot_link/oc/oc_lwm2m/boudica150_oc\boudica150_oc.c ****     {
 572:C:/Users/Administrator/.iotlink/sdk/IoT_LINK/iot_link/oc/oc_lwm2m/boudica150_oc\boudica150_oc.c **** 
 573:C:/Users/Administrator/.iotlink/sdk/IoT_LINK/iot_link/oc/oc_lwm2m/boudica150_oc\boudica150_oc.c ****         s_boudica150_oc_cb.lwm2m_observe = false;
 2402              		.loc 1 573 42
 2403 002e 304B     		ldr	r3, .L149+24
 2404 0030 0022     		movs	r2, #0
 2405 0032 C3F85421 		str	r2, [r3, #340]
 574:C:/Users/Administrator/.iotlink/sdk/IoT_LINK/iot_link/oc/oc_lwm2m/boudica150_oc\boudica150_oc.c **** 
 575:C:/Users/Administrator/.iotlink/sdk/IoT_LINK/iot_link/oc/oc_lwm2m/boudica150_oc\boudica150_oc.c ****         boudica150_reboot();
 2406              		.loc 1 575 9
 2407 0036 FFF7FEFF 		bl	boudica150_reboot
 576:C:/Users/Administrator/.iotlink/sdk/IoT_LINK/iot_link/oc/oc_lwm2m/boudica150_oc\boudica150_oc.c **** 
 577:C:/Users/Administrator/.iotlink/sdk/IoT_LINK/iot_link/oc/oc_lwm2m/boudica150_oc\boudica150_oc.c ****         boudica150_set_echo (0);
 2408              		.loc 1 577 9
 2409 003a 0020     		movs	r0, #0
 2410 003c FFF7FEFF 		bl	boudica150_set_echo
 578:C:/Users/Administrator/.iotlink/sdk/IoT_LINK/iot_link/oc/oc_lwm2m/boudica150_oc\boudica150_oc.c **** 
 579:C:/Users/Administrator/.iotlink/sdk/IoT_LINK/iot_link/oc/oc_lwm2m/boudica150_oc\boudica150_oc.c ****         boudica150_set_regmode(1);
 2411              		.loc 1 579 9
 2412 0040 0120     		movs	r0, #1
 2413 0042 FFF7FEFF 		bl	boudica150_set_regmode
 580:C:/Users/Administrator/.iotlink/sdk/IoT_LINK/iot_link/oc/oc_lwm2m/boudica150_oc\boudica150_oc.c **** 
 581:C:/Users/Administrator/.iotlink/sdk/IoT_LINK/iot_link/oc/oc_lwm2m/boudica150_oc\boudica150_oc.c ****         boudica150_set_cmee(1);
 2414              		.loc 1 581 9
 2415 0046 0120     		movs	r0, #1
 2416 0048 FFF7FEFF 		bl	boudica150_set_cmee
 582:C:/Users/Administrator/.iotlink/sdk/IoT_LINK/iot_link/oc/oc_lwm2m/boudica150_oc\boudica150_oc.c **** 
 583:C:/Users/Administrator/.iotlink/sdk/IoT_LINK/iot_link/oc/oc_lwm2m/boudica150_oc\boudica150_oc.c ****         boudica150_set_autoconnect(0);     //cgatt and cfun must be called if autoconnect is false
ARM GAS  C:\Users\ADMINI~1\AppData\Local\Temp\cctemkqi.s 			page 55


 2417              		.loc 1 583 9
 2418 004c 0020     		movs	r0, #0
 2419 004e FFF7FEFF 		bl	boudica150_set_autoconnect
 584:C:/Users/Administrator/.iotlink/sdk/IoT_LINK/iot_link/oc/oc_lwm2m/boudica150_oc\boudica150_oc.c **** 
 585:C:/Users/Administrator/.iotlink/sdk/IoT_LINK/iot_link/oc/oc_lwm2m/boudica150_oc\boudica150_oc.c ****         boudica150_set_bands(bands);
 2420              		.loc 1 585 9
 2421 0052 7868     		ldr	r0, [r7, #4]
 2422 0054 FFF7FEFF 		bl	boudica150_set_bands
 586:C:/Users/Administrator/.iotlink/sdk/IoT_LINK/iot_link/oc/oc_lwm2m/boudica150_oc\boudica150_oc.c **** 
 587:C:/Users/Administrator/.iotlink/sdk/IoT_LINK/iot_link/oc/oc_lwm2m/boudica150_oc\boudica150_oc.c ****         boudica150_set_fun(1);
 2423              		.loc 1 587 9
 2424 0058 0120     		movs	r0, #1
 2425 005a FFF7FEFF 		bl	boudica150_set_fun
 588:C:/Users/Administrator/.iotlink/sdk/IoT_LINK/iot_link/oc/oc_lwm2m/boudica150_oc\boudica150_oc.c **** 
 589:C:/Users/Administrator/.iotlink/sdk/IoT_LINK/iot_link/oc/oc_lwm2m/boudica150_oc\boudica150_oc.c ****         boudica150_set_plmn(plmn);
 2426              		.loc 1 589 9
 2427 005e F868     		ldr	r0, [r7, #12]
 2428 0060 FFF7FEFF 		bl	boudica150_set_plmn
 590:C:/Users/Administrator/.iotlink/sdk/IoT_LINK/iot_link/oc/oc_lwm2m/boudica150_oc\boudica150_oc.c **** 
 591:C:/Users/Administrator/.iotlink/sdk/IoT_LINK/iot_link/oc/oc_lwm2m/boudica150_oc\boudica150_oc.c ****         boudica150_set_apn(apn);
 2429              		.loc 1 591 9
 2430 0064 B868     		ldr	r0, [r7, #8]
 2431 0066 FFF7FEFF 		bl	boudica150_set_apn
 592:C:/Users/Administrator/.iotlink/sdk/IoT_LINK/iot_link/oc/oc_lwm2m/boudica150_oc\boudica150_oc.c **** 
 593:C:/Users/Administrator/.iotlink/sdk/IoT_LINK/iot_link/oc/oc_lwm2m/boudica150_oc\boudica150_oc.c ****         boudica150_set_cdp(server,port);
 2432              		.loc 1 593 9
 2433 006a 396A     		ldr	r1, [r7, #32]
 2434 006c 3868     		ldr	r0, [r7]
 2435 006e FFF7FEFF 		bl	boudica150_set_cdp
 594:C:/Users/Administrator/.iotlink/sdk/IoT_LINK/iot_link/oc/oc_lwm2m/boudica150_oc\boudica150_oc.c **** 
 595:C:/Users/Administrator/.iotlink/sdk/IoT_LINK/iot_link/oc/oc_lwm2m/boudica150_oc\boudica150_oc.c ****         boudica150_set_cgatt(1);
 2436              		.loc 1 595 9
 2437 0072 0120     		movs	r0, #1
 2438 0074 FFF7FEFF 		bl	boudica150_set_cgatt
 596:C:/Users/Administrator/.iotlink/sdk/IoT_LINK/iot_link/oc/oc_lwm2m/boudica150_oc\boudica150_oc.c **** 
 597:C:/Users/Administrator/.iotlink/sdk/IoT_LINK/iot_link/oc/oc_lwm2m/boudica150_oc\boudica150_oc.c ****         boudica150_set_nnmi(1);
 2439              		.loc 1 597 9
 2440 0078 0120     		movs	r0, #1
 2441 007a FFF7FEFF 		bl	boudica150_set_nnmi
 598:C:/Users/Administrator/.iotlink/sdk/IoT_LINK/iot_link/oc/oc_lwm2m/boudica150_oc\boudica150_oc.c **** 
 599:C:/Users/Administrator/.iotlink/sdk/IoT_LINK/iot_link/oc/oc_lwm2m/boudica150_oc\boudica150_oc.c ****         if(false == boudica150_check_netattach(16))
 2442              		.loc 1 599 21
 2443 007e 1020     		movs	r0, #16
 2444 0080 FFF7FEFF 		bl	boudica150_check_netattach
 2445 0084 0346     		mov	r3, r0
 2446              		.loc 1 599 11
 2447 0086 002B     		cmp	r3, #0
 2448 0088 06D0     		beq	.L147
 600:C:/Users/Administrator/.iotlink/sdk/IoT_LINK/iot_link/oc/oc_lwm2m/boudica150_oc\boudica150_oc.c ****         {
 601:C:/Users/Administrator/.iotlink/sdk/IoT_LINK/iot_link/oc/oc_lwm2m/boudica150_oc\boudica150_oc.c ****             continue;
 602:C:/Users/Administrator/.iotlink/sdk/IoT_LINK/iot_link/oc/oc_lwm2m/boudica150_oc\boudica150_oc.c ****         }
 603:C:/Users/Administrator/.iotlink/sdk/IoT_LINK/iot_link/oc/oc_lwm2m/boudica150_oc\boudica150_oc.c **** 
 604:C:/Users/Administrator/.iotlink/sdk/IoT_LINK/iot_link/oc/oc_lwm2m/boudica150_oc\boudica150_oc.c ****         if(false == boudica150_check_observe(16)) //TODO--maybe this only compatible with QUETEL MO
 2449              		.loc 1 604 21
 2450 008a 1020     		movs	r0, #16
 2451 008c FFF7FEFF 		bl	boudica150_check_observe
 2452 0090 0346     		mov	r3, r0
ARM GAS  C:\Users\ADMINI~1\AppData\Local\Temp\cctemkqi.s 			page 56


 2453              		.loc 1 604 11
 2454 0092 002B     		cmp	r3, #0
 2455 0094 02D1     		bne	.L148
 605:C:/Users/Administrator/.iotlink/sdk/IoT_LINK/iot_link/oc/oc_lwm2m/boudica150_oc\boudica150_oc.c ****         {
 606:C:/Users/Administrator/.iotlink/sdk/IoT_LINK/iot_link/oc/oc_lwm2m/boudica150_oc\boudica150_oc.c ****             continue; //we should do the reboot for the nB
 2456              		.loc 1 606 13
 2457 0096 00E0     		b	.L141
 2458              	.L147:
 601:C:/Users/Administrator/.iotlink/sdk/IoT_LINK/iot_link/oc/oc_lwm2m/boudica150_oc\boudica150_oc.c ****         }
 2459              		.loc 1 601 13
 2460 0098 00BF     		nop
 2461              	.L141:
 573:C:/Users/Administrator/.iotlink/sdk/IoT_LINK/iot_link/oc/oc_lwm2m/boudica150_oc\boudica150_oc.c **** 
 2462              		.loc 1 573 42
 2463 009a C8E7     		b	.L144
 2464              	.L148:
 607:C:/Users/Administrator/.iotlink/sdk/IoT_LINK/iot_link/oc/oc_lwm2m/boudica150_oc\boudica150_oc.c ****         }
 608:C:/Users/Administrator/.iotlink/sdk/IoT_LINK/iot_link/oc/oc_lwm2m/boudica150_oc\boudica150_oc.c **** 
 609:C:/Users/Administrator/.iotlink/sdk/IoT_LINK/iot_link/oc/oc_lwm2m/boudica150_oc\boudica150_oc.c ****         break;
 2465              		.loc 1 609 9
 2466 009c 00BF     		nop
 610:C:/Users/Administrator/.iotlink/sdk/IoT_LINK/iot_link/oc/oc_lwm2m/boudica150_oc\boudica150_oc.c ****     }
 611:C:/Users/Administrator/.iotlink/sdk/IoT_LINK/iot_link/oc/oc_lwm2m/boudica150_oc\boudica150_oc.c ****    //reach here means everything is ok, we can go now
 612:C:/Users/Administrator/.iotlink/sdk/IoT_LINK/iot_link/oc/oc_lwm2m/boudica150_oc\boudica150_oc.c ****     s_boudica150_oc_cb.sndenable = true;
 2467              		.loc 1 612 34
 2468 009e 144B     		ldr	r3, .L149+24
 2469 00a0 0122     		movs	r2, #1
 2470 00a2 9A64     		str	r2, [r3, #72]
 613:C:/Users/Administrator/.iotlink/sdk/IoT_LINK/iot_link/oc/oc_lwm2m/boudica150_oc\boudica150_oc.c ****     LINK_LOG_DEBUG("NB MODULE RXTX READY NOW\n\r");
 2471              		.loc 1 613 5
 2472 00a4 FFF7FEFF 		bl	link_log_level_get
 2473 00a8 0346     		mov	r3, r0
 2474 00aa 012B     		cmp	r3, #1
 2475 00ac 0FD8     		bhi	.L145
 2476              		.loc 1 613 5 is_stmt 0 discriminator 1
 2477 00ae 0120     		movs	r0, #1
 2478 00b0 FFF7FEFF 		bl	link_log_level_name
 2479 00b4 0446     		mov	r4, r0
 2480 00b6 FFF7FEFF 		bl	osal_sys_time
 2481 00ba 0246     		mov	r2, r0
 2482 00bc 0B46     		mov	r3, r1
 2483 00be 40F26523 		movw	r3, #613
 2484 00c2 0093     		str	r3, [sp]
 2485 00c4 0B4B     		ldr	r3, .L149+28
 2486 00c6 2146     		mov	r1, r4
 2487 00c8 0B48     		ldr	r0, .L149+32
 2488 00ca FFF7FEFF 		bl	printf
 2489              	.L145:
 614:C:/Users/Administrator/.iotlink/sdk/IoT_LINK/iot_link/oc/oc_lwm2m/boudica150_oc\boudica150_oc.c ****     return true;
 2490              		.loc 1 614 12 is_stmt 1
 2491 00ce 0123     		movs	r3, #1
 615:C:/Users/Administrator/.iotlink/sdk/IoT_LINK/iot_link/oc/oc_lwm2m/boudica150_oc\boudica150_oc.c **** }
 2492              		.loc 1 615 1
 2493 00d0 1846     		mov	r0, r3
 2494 00d2 1437     		adds	r7, r7, #20
 2495              	.LCFI106:
 2496              		.cfi_def_cfa_offset 12
ARM GAS  C:\Users\ADMINI~1\AppData\Local\Temp\cctemkqi.s 			page 57


 2497 00d4 BD46     		mov	sp, r7
 2498              	.LCFI107:
 2499              		.cfi_def_cfa_register 13
 2500              		@ sp needed
 2501 00d6 90BD     		pop	{r4, r7, pc}
 2502              	.L150:
 2503              		.align	2
 2504              	.L149:
 2505 00d8 00000000 		.word	urc_qlwevtind
 2506 00dc 94020000 		.word	.LC38
 2507 00e0 A4020000 		.word	.LC39
 2508 00e4 00000000 		.word	boudica150_rcvdeal
 2509 00e8 B0020000 		.word	.LC40
 2510 00ec BC020000 		.word	.LC41
 2511 00f0 00000000 		.word	s_boudica150_oc_cb
 2512 00f4 00000000 		.word	__FUNCTION__.7192
 2513 00f8 CC020000 		.word	.LC42
 2514              		.cfi_endproc
 2515              	.LFE24:
 2517              		.section	.text.boudica150_oc_config,"ax",%progbits
 2518              		.align	1
 2519              		.syntax unified
 2520              		.thumb
 2521              		.thumb_func
 2522              		.fpu fpv4-sp-d16
 2524              	boudica150_oc_config:
 2525              	.LFB25:
 616:C:/Users/Administrator/.iotlink/sdk/IoT_LINK/iot_link/oc/oc_lwm2m/boudica150_oc\boudica150_oc.c **** 
 617:C:/Users/Administrator/.iotlink/sdk/IoT_LINK/iot_link/oc/oc_lwm2m/boudica150_oc\boudica150_oc.c **** 
 618:C:/Users/Administrator/.iotlink/sdk/IoT_LINK/iot_link/oc/oc_lwm2m/boudica150_oc\boudica150_oc.c **** static int boudica150_oc_config(oc_config_param_t *param)
 619:C:/Users/Administrator/.iotlink/sdk/IoT_LINK/iot_link/oc/oc_lwm2m/boudica150_oc\boudica150_oc.c **** {
 2526              		.loc 1 619 1
 2527              		.cfi_startproc
 2528              		@ args = 0, pretend = 0, frame = 16
 2529              		@ frame_needed = 1, uses_anonymous_args = 0
 2530 0000 B0B5     		push	{r4, r5, r7, lr}
 2531              	.LCFI108:
 2532              		.cfi_def_cfa_offset 16
 2533              		.cfi_offset 4, -16
 2534              		.cfi_offset 5, -12
 2535              		.cfi_offset 7, -8
 2536              		.cfi_offset 14, -4
 2537 0002 86B0     		sub	sp, sp, #24
 2538              	.LCFI109:
 2539              		.cfi_def_cfa_offset 40
 2540 0004 02AF     		add	r7, sp, #8
 2541              	.LCFI110:
 2542              		.cfi_def_cfa 7, 32
 2543 0006 7860     		str	r0, [r7, #4]
 620:C:/Users/Administrator/.iotlink/sdk/IoT_LINK/iot_link/oc/oc_lwm2m/boudica150_oc\boudica150_oc.c ****     int ret = en_oc_lwm2m_err_configured;
 2544              		.loc 1 620 9
 2545 0008 0523     		movs	r3, #5
 2546 000a FB60     		str	r3, [r7, #12]
 621:C:/Users/Administrator/.iotlink/sdk/IoT_LINK/iot_link/oc/oc_lwm2m/boudica150_oc\boudica150_oc.c **** 
 622:C:/Users/Administrator/.iotlink/sdk/IoT_LINK/iot_link/oc/oc_lwm2m/boudica150_oc\boudica150_oc.c ****     if(NULL == param)
 2547              		.loc 1 622 7
 2548 000c 7B68     		ldr	r3, [r7, #4]
ARM GAS  C:\Users\ADMINI~1\AppData\Local\Temp\cctemkqi.s 			page 58


 2549 000e 002B     		cmp	r3, #0
 2550 0010 03D1     		bne	.L152
 623:C:/Users/Administrator/.iotlink/sdk/IoT_LINK/iot_link/oc/oc_lwm2m/boudica150_oc\boudica150_oc.c ****     {
 624:C:/Users/Administrator/.iotlink/sdk/IoT_LINK/iot_link/oc/oc_lwm2m/boudica150_oc\boudica150_oc.c ****         ret = en_oc_lwm2m_err_parafmt;
 2551              		.loc 1 624 13
 2552 0012 0123     		movs	r3, #1
 2553 0014 FB60     		str	r3, [r7, #12]
 625:C:/Users/Administrator/.iotlink/sdk/IoT_LINK/iot_link/oc/oc_lwm2m/boudica150_oc\boudica150_oc.c ****         return ret;
 2554              		.loc 1 625 16
 2555 0016 FB68     		ldr	r3, [r7, #12]
 2556 0018 2CE0     		b	.L153
 2557              	.L152:
 626:C:/Users/Administrator/.iotlink/sdk/IoT_LINK/iot_link/oc/oc_lwm2m/boudica150_oc\boudica150_oc.c ****     }
 627:C:/Users/Administrator/.iotlink/sdk/IoT_LINK/iot_link/oc/oc_lwm2m/boudica150_oc\boudica150_oc.c **** 
 628:C:/Users/Administrator/.iotlink/sdk/IoT_LINK/iot_link/oc/oc_lwm2m/boudica150_oc\boudica150_oc.c ****     if(NULL == s_oc_handle)
 2558              		.loc 1 628 13
 2559 001a 184B     		ldr	r3, .L156
 2560 001c 1B68     		ldr	r3, [r3]
 2561              		.loc 1 628 7
 2562 001e 002B     		cmp	r3, #0
 2563 0020 27D1     		bne	.L154
 629:C:/Users/Administrator/.iotlink/sdk/IoT_LINK/iot_link/oc/oc_lwm2m/boudica150_oc\boudica150_oc.c ****     {
 630:C:/Users/Administrator/.iotlink/sdk/IoT_LINK/iot_link/oc/oc_lwm2m/boudica150_oc\boudica150_oc.c ****         s_boudica150_oc_cb.oc_param = *param;
 2564              		.loc 1 630 37
 2565 0022 174B     		ldr	r3, .L156+4
 2566 0024 7A68     		ldr	r2, [r7, #4]
 2567 0026 03F10C04 		add	r4, r3, #12
 2568 002a 1546     		mov	r5, r2
 2569 002c 0FCD     		ldmia	r5!, {r0, r1, r2, r3}
 2570 002e 0FC4     		stmia	r4!, {r0, r1, r2, r3}
 2571 0030 0FCD     		ldmia	r5!, {r0, r1, r2, r3}
 2572 0032 0FC4     		stmia	r4!, {r0, r1, r2, r3}
 2573 0034 0FCD     		ldmia	r5!, {r0, r1, r2, r3}
 2574 0036 0FC4     		stmia	r4!, {r0, r1, r2, r3}
 2575 0038 95E80700 		ldm	r5, {r0, r1, r2}
 2576 003c 84E80700 		stm	r4, {r0, r1, r2}
 631:C:/Users/Administrator/.iotlink/sdk/IoT_LINK/iot_link/oc/oc_lwm2m/boudica150_oc\boudica150_oc.c **** 
 632:C:/Users/Administrator/.iotlink/sdk/IoT_LINK/iot_link/oc/oc_lwm2m/boudica150_oc\boudica150_oc.c ****         if(boudica150_boot(s_boudica150_oc_cb.plmn,s_boudica150_oc_cb.apn,s_boudica150_oc_cb.bands,
 2577              		.loc 1 632 12
 2578 0040 0F4B     		ldr	r3, .L156+4
 2579 0042 1868     		ldr	r0, [r3]
 2580 0044 0E4B     		ldr	r3, .L156+4
 2581 0046 5968     		ldr	r1, [r3, #4]
 2582 0048 0D4B     		ldr	r3, .L156+4
 2583 004a 9A68     		ldr	r2, [r3, #8]
 633:C:/Users/Administrator/.iotlink/sdk/IoT_LINK/iot_link/oc/oc_lwm2m/boudica150_oc\boudica150_oc.c ****                 s_boudica150_oc_cb.oc_param.app_server.address,s_boudica150_oc_cb.oc_param.app_serv
 2584              		.loc 1 633 55
 2585 004c 0C4B     		ldr	r3, .L156+4
 2586 004e DC6A     		ldr	r4, [r3, #44]
 2587              		.loc 1 633 102
 2588 0050 0B4B     		ldr	r3, .L156+4
 2589 0052 1B6B     		ldr	r3, [r3, #48]
 632:C:/Users/Administrator/.iotlink/sdk/IoT_LINK/iot_link/oc/oc_lwm2m/boudica150_oc\boudica150_oc.c ****                 s_boudica150_oc_cb.oc_param.app_server.address,s_boudica150_oc_cb.oc_param.app_serv
 2590              		.loc 1 632 12
 2591 0054 0093     		str	r3, [sp]
 2592 0056 2346     		mov	r3, r4
 2593 0058 FFF7FEFF 		bl	boudica150_boot
ARM GAS  C:\Users\ADMINI~1\AppData\Local\Temp\cctemkqi.s 			page 59


 2594 005c 0346     		mov	r3, r0
 632:C:/Users/Administrator/.iotlink/sdk/IoT_LINK/iot_link/oc/oc_lwm2m/boudica150_oc\boudica150_oc.c ****                 s_boudica150_oc_cb.oc_param.app_server.address,s_boudica150_oc_cb.oc_param.app_serv
 2595              		.loc 1 632 11
 2596 005e 002B     		cmp	r3, #0
 2597 0060 05D0     		beq	.L155
 634:C:/Users/Administrator/.iotlink/sdk/IoT_LINK/iot_link/oc/oc_lwm2m/boudica150_oc\boudica150_oc.c ****         {
 635:C:/Users/Administrator/.iotlink/sdk/IoT_LINK/iot_link/oc/oc_lwm2m/boudica150_oc\boudica150_oc.c ****             s_oc_handle = &s_boudica150_oc_cb;
 2598              		.loc 1 635 25
 2599 0062 064B     		ldr	r3, .L156
 2600 0064 064A     		ldr	r2, .L156+4
 2601 0066 1A60     		str	r2, [r3]
 636:C:/Users/Administrator/.iotlink/sdk/IoT_LINK/iot_link/oc/oc_lwm2m/boudica150_oc\boudica150_oc.c ****             ret = en_oc_lwm2m_err_ok;
 2602              		.loc 1 636 17
 2603 0068 0023     		movs	r3, #0
 2604 006a FB60     		str	r3, [r7, #12]
 2605 006c 01E0     		b	.L154
 2606              	.L155:
 637:C:/Users/Administrator/.iotlink/sdk/IoT_LINK/iot_link/oc/oc_lwm2m/boudica150_oc\boudica150_oc.c ****         }
 638:C:/Users/Administrator/.iotlink/sdk/IoT_LINK/iot_link/oc/oc_lwm2m/boudica150_oc\boudica150_oc.c ****         else
 639:C:/Users/Administrator/.iotlink/sdk/IoT_LINK/iot_link/oc/oc_lwm2m/boudica150_oc\boudica150_oc.c ****         {
 640:C:/Users/Administrator/.iotlink/sdk/IoT_LINK/iot_link/oc/oc_lwm2m/boudica150_oc\boudica150_oc.c ****             ret = en_oc_lwm2m_err_network;
 2607              		.loc 1 640 17
 2608 006e 0223     		movs	r3, #2
 2609 0070 FB60     		str	r3, [r7, #12]
 2610              	.L154:
 641:C:/Users/Administrator/.iotlink/sdk/IoT_LINK/iot_link/oc/oc_lwm2m/boudica150_oc\boudica150_oc.c ****         }
 642:C:/Users/Administrator/.iotlink/sdk/IoT_LINK/iot_link/oc/oc_lwm2m/boudica150_oc\boudica150_oc.c ****     }
 643:C:/Users/Administrator/.iotlink/sdk/IoT_LINK/iot_link/oc/oc_lwm2m/boudica150_oc\boudica150_oc.c **** 
 644:C:/Users/Administrator/.iotlink/sdk/IoT_LINK/iot_link/oc/oc_lwm2m/boudica150_oc\boudica150_oc.c ****     return ret;
 2611              		.loc 1 644 12
 2612 0072 FB68     		ldr	r3, [r7, #12]
 2613              	.L153:
 645:C:/Users/Administrator/.iotlink/sdk/IoT_LINK/iot_link/oc/oc_lwm2m/boudica150_oc\boudica150_oc.c **** }
 2614              		.loc 1 645 1
 2615 0074 1846     		mov	r0, r3
 2616 0076 1037     		adds	r7, r7, #16
 2617              	.LCFI111:
 2618              		.cfi_def_cfa_offset 16
 2619 0078 BD46     		mov	sp, r7
 2620              	.LCFI112:
 2621              		.cfi_def_cfa_register 13
 2622              		@ sp needed
 2623 007a B0BD     		pop	{r4, r5, r7, pc}
 2624              	.L157:
 2625              		.align	2
 2626              	.L156:
 2627 007c 00000000 		.word	s_oc_handle
 2628 0080 00000000 		.word	s_boudica150_oc_cb
 2629              		.cfi_endproc
 2630              	.LFE25:
 2632              		.section	.text.boudica150_oc_deconfig,"ax",%progbits
 2633              		.align	1
 2634              		.syntax unified
 2635              		.thumb
 2636              		.thumb_func
 2637              		.fpu fpv4-sp-d16
 2639              	boudica150_oc_deconfig:
ARM GAS  C:\Users\ADMINI~1\AppData\Local\Temp\cctemkqi.s 			page 60


 2640              	.LFB26:
 646:C:/Users/Administrator/.iotlink/sdk/IoT_LINK/iot_link/oc/oc_lwm2m/boudica150_oc\boudica150_oc.c **** 
 647:C:/Users/Administrator/.iotlink/sdk/IoT_LINK/iot_link/oc/oc_lwm2m/boudica150_oc\boudica150_oc.c **** static int boudica150_oc_deconfig(void)
 648:C:/Users/Administrator/.iotlink/sdk/IoT_LINK/iot_link/oc/oc_lwm2m/boudica150_oc\boudica150_oc.c **** {
 2641              		.loc 1 648 1
 2642              		.cfi_startproc
 2643              		@ args = 0, pretend = 0, frame = 8
 2644              		@ frame_needed = 1, uses_anonymous_args = 0
 2645              		@ link register save eliminated.
 2646 0000 80B4     		push	{r7}
 2647              	.LCFI113:
 2648              		.cfi_def_cfa_offset 4
 2649              		.cfi_offset 7, -4
 2650 0002 83B0     		sub	sp, sp, #12
 2651              	.LCFI114:
 2652              		.cfi_def_cfa_offset 16
 2653 0004 00AF     		add	r7, sp, #0
 2654              	.LCFI115:
 2655              		.cfi_def_cfa_register 7
 649:C:/Users/Administrator/.iotlink/sdk/IoT_LINK/iot_link/oc/oc_lwm2m/boudica150_oc\boudica150_oc.c ****     int ret = en_oc_lwm2m_err_noconfigured;
 2656              		.loc 1 649 9
 2657 0006 0423     		movs	r3, #4
 2658 0008 7B60     		str	r3, [r7, #4]
 650:C:/Users/Administrator/.iotlink/sdk/IoT_LINK/iot_link/oc/oc_lwm2m/boudica150_oc\boudica150_oc.c **** 
 651:C:/Users/Administrator/.iotlink/sdk/IoT_LINK/iot_link/oc/oc_lwm2m/boudica150_oc\boudica150_oc.c ****     if(NULL != s_oc_handle)
 2659              		.loc 1 651 13
 2660 000a 084B     		ldr	r3, .L161
 2661 000c 1B68     		ldr	r3, [r3]
 2662              		.loc 1 651 7
 2663 000e 002B     		cmp	r3, #0
 2664 0010 04D0     		beq	.L159
 652:C:/Users/Administrator/.iotlink/sdk/IoT_LINK/iot_link/oc/oc_lwm2m/boudica150_oc\boudica150_oc.c ****     {
 653:C:/Users/Administrator/.iotlink/sdk/IoT_LINK/iot_link/oc/oc_lwm2m/boudica150_oc\boudica150_oc.c ****         s_oc_handle = NULL;
 2665              		.loc 1 653 21
 2666 0012 064B     		ldr	r3, .L161
 2667 0014 0022     		movs	r2, #0
 2668 0016 1A60     		str	r2, [r3]
 654:C:/Users/Administrator/.iotlink/sdk/IoT_LINK/iot_link/oc/oc_lwm2m/boudica150_oc\boudica150_oc.c ****         ret = en_oc_lwm2m_err_ok;
 2669              		.loc 1 654 13
 2670 0018 0023     		movs	r3, #0
 2671 001a 7B60     		str	r3, [r7, #4]
 2672              	.L159:
 655:C:/Users/Administrator/.iotlink/sdk/IoT_LINK/iot_link/oc/oc_lwm2m/boudica150_oc\boudica150_oc.c ****     }
 656:C:/Users/Administrator/.iotlink/sdk/IoT_LINK/iot_link/oc/oc_lwm2m/boudica150_oc\boudica150_oc.c ****     return ret;
 2673              		.loc 1 656 12
 2674 001c 7B68     		ldr	r3, [r7, #4]
 657:C:/Users/Administrator/.iotlink/sdk/IoT_LINK/iot_link/oc/oc_lwm2m/boudica150_oc\boudica150_oc.c **** }
 2675              		.loc 1 657 1
 2676 001e 1846     		mov	r0, r3
 2677 0020 0C37     		adds	r7, r7, #12
 2678              	.LCFI116:
 2679              		.cfi_def_cfa_offset 4
 2680 0022 BD46     		mov	sp, r7
 2681              	.LCFI117:
 2682              		.cfi_def_cfa_register 13
 2683              		@ sp needed
 2684 0024 5DF8047B 		ldr	r7, [sp], #4
ARM GAS  C:\Users\ADMINI~1\AppData\Local\Temp\cctemkqi.s 			page 61


 2685              	.LCFI118:
 2686              		.cfi_restore 7
 2687              		.cfi_def_cfa_offset 0
 2688 0028 7047     		bx	lr
 2689              	.L162:
 2690 002a 00BF     		.align	2
 2691              	.L161:
 2692 002c 00000000 		.word	s_oc_handle
 2693              		.cfi_endproc
 2694              	.LFE26:
 2696              		.section	.rodata
 2697 02f9 000000   		.align	2
 2698              	.LC43:
 2699 02fc 41542B43 		.ascii	"AT+CSQ\015\000"
 2699      53510D00 
 2700              		.align	2
 2701              	.LC44:
 2702 0304 2B435351 		.ascii	"+CSQ:\000"
 2702      3A00
 2703              		.section	.text.boudica150_get_csq,"ax",%progbits
 2704              		.align	1
 2705              		.global	boudica150_get_csq
 2706              		.syntax unified
 2707              		.thumb
 2708              		.thumb_func
 2709              		.fpu fpv4-sp-d16
 2711              	boudica150_get_csq:
 2712              	.LFB27:
 658:C:/Users/Administrator/.iotlink/sdk/IoT_LINK/iot_link/oc/oc_lwm2m/boudica150_oc\boudica150_oc.c **** 
 659:C:/Users/Administrator/.iotlink/sdk/IoT_LINK/iot_link/oc/oc_lwm2m/boudica150_oc\boudica150_oc.c **** 
 660:C:/Users/Administrator/.iotlink/sdk/IoT_LINK/iot_link/oc/oc_lwm2m/boudica150_oc\boudica150_oc.c **** //this function to get the csq
 661:C:/Users/Administrator/.iotlink/sdk/IoT_LINK/iot_link/oc/oc_lwm2m/boudica150_oc\boudica150_oc.c **** int boudica150_get_csq(int *value)
 662:C:/Users/Administrator/.iotlink/sdk/IoT_LINK/iot_link/oc/oc_lwm2m/boudica150_oc\boudica150_oc.c **** {
 2713              		.loc 1 662 1
 2714              		.cfi_startproc
 2715              		@ args = 0, pretend = 0, frame = 152
 2716              		@ frame_needed = 1, uses_anonymous_args = 0
 2717 0000 80B5     		push	{r7, lr}
 2718              	.LCFI119:
 2719              		.cfi_def_cfa_offset 8
 2720              		.cfi_offset 7, -8
 2721              		.cfi_offset 14, -4
 2722 0002 A6B0     		sub	sp, sp, #152
 2723              	.LCFI120:
 2724              		.cfi_def_cfa_offset 160
 2725 0004 00AF     		add	r7, sp, #0
 2726              	.LCFI121:
 2727              		.cfi_def_cfa_register 7
 2728 0006 7860     		str	r0, [r7, #4]
 663:C:/Users/Administrator/.iotlink/sdk/IoT_LINK/iot_link/oc/oc_lwm2m/boudica150_oc\boudica150_oc.c ****     char cmd[64];
 664:C:/Users/Administrator/.iotlink/sdk/IoT_LINK/iot_link/oc/oc_lwm2m/boudica150_oc\boudica150_oc.c ****     char resp[64];
 665:C:/Users/Administrator/.iotlink/sdk/IoT_LINK/iot_link/oc/oc_lwm2m/boudica150_oc\boudica150_oc.c ****     const char *index = "OK";
 2729              		.loc 1 665 17
 2730 0008 384B     		ldr	r3, .L171
 2731 000a C7F88830 		str	r3, [r7, #136]
 666:C:/Users/Administrator/.iotlink/sdk/IoT_LINK/iot_link/oc/oc_lwm2m/boudica150_oc\boudica150_oc.c ****     const char *str;
 667:C:/Users/Administrator/.iotlink/sdk/IoT_LINK/iot_link/oc/oc_lwm2m/boudica150_oc\boudica150_oc.c ****     int csq = 0;
ARM GAS  C:\Users\ADMINI~1\AppData\Local\Temp\cctemkqi.s 			page 62


 2732              		.loc 1 667 9
 2733 000e 0023     		movs	r3, #0
 2734 0010 C7F89030 		str	r3, [r7, #144]
 668:C:/Users/Administrator/.iotlink/sdk/IoT_LINK/iot_link/oc/oc_lwm2m/boudica150_oc\boudica150_oc.c ****     int ret = -1;
 2735              		.loc 1 668 9
 2736 0014 4FF0FF33 		mov	r3, #-1
 2737 0018 C7F88C30 		str	r3, [r7, #140]
 669:C:/Users/Administrator/.iotlink/sdk/IoT_LINK/iot_link/oc/oc_lwm2m/boudica150_oc\boudica150_oc.c **** 
 670:C:/Users/Administrator/.iotlink/sdk/IoT_LINK/iot_link/oc/oc_lwm2m/boudica150_oc\boudica150_oc.c ****     if(NULL == value)
 2738              		.loc 1 670 7
 2739 001c 7B68     		ldr	r3, [r7, #4]
 2740 001e 002B     		cmp	r3, #0
 2741 0020 02D1     		bne	.L164
 671:C:/Users/Administrator/.iotlink/sdk/IoT_LINK/iot_link/oc/oc_lwm2m/boudica150_oc\boudica150_oc.c ****     {
 672:C:/Users/Administrator/.iotlink/sdk/IoT_LINK/iot_link/oc/oc_lwm2m/boudica150_oc\boudica150_oc.c ****         return ret;
 2742              		.loc 1 672 16
 2743 0022 D7F88C30 		ldr	r3, [r7, #140]
 2744 0026 5CE0     		b	.L170
 2745              	.L164:
 673:C:/Users/Administrator/.iotlink/sdk/IoT_LINK/iot_link/oc/oc_lwm2m/boudica150_oc\boudica150_oc.c ****     }
 674:C:/Users/Administrator/.iotlink/sdk/IoT_LINK/iot_link/oc/oc_lwm2m/boudica150_oc\boudica150_oc.c **** 
 675:C:/Users/Administrator/.iotlink/sdk/IoT_LINK/iot_link/oc/oc_lwm2m/boudica150_oc\boudica150_oc.c ****     (void) memset(cmd,0,64);
 2746              		.loc 1 675 12
 2747 0028 07F14803 		add	r3, r7, #72
 2748 002c 4022     		movs	r2, #64
 2749 002e 0021     		movs	r1, #0
 2750 0030 1846     		mov	r0, r3
 2751 0032 FFF7FEFF 		bl	memset
 676:C:/Users/Administrator/.iotlink/sdk/IoT_LINK/iot_link/oc/oc_lwm2m/boudica150_oc\boudica150_oc.c ****     (void) memset(resp,0,64);
 2752              		.loc 1 676 12
 2753 0036 07F10803 		add	r3, r7, #8
 2754 003a 4022     		movs	r2, #64
 2755 003c 0021     		movs	r1, #0
 2756 003e 1846     		mov	r0, r3
 2757 0040 FFF7FEFF 		bl	memset
 677:C:/Users/Administrator/.iotlink/sdk/IoT_LINK/iot_link/oc/oc_lwm2m/boudica150_oc\boudica150_oc.c ****     (void) snprintf(cmd,64,"AT+CSQ\r");
 2758              		.loc 1 677 12
 2759 0044 07F14803 		add	r3, r7, #72
 2760 0048 294A     		ldr	r2, .L171+4
 2761 004a 4021     		movs	r1, #64
 2762 004c 1846     		mov	r0, r3
 2763 004e FFF7FEFF 		bl	snprintf
 678:C:/Users/Administrator/.iotlink/sdk/IoT_LINK/iot_link/oc/oc_lwm2m/boudica150_oc\boudica150_oc.c ****     if(boudica150_atcmd_response(cmd,index,resp,64))
 2764              		.loc 1 678 8
 2765 0052 07F10802 		add	r2, r7, #8
 2766 0056 07F14800 		add	r0, r7, #72
 2767 005a 4023     		movs	r3, #64
 2768 005c D7F88810 		ldr	r1, [r7, #136]
 2769 0060 FFF7FEFF 		bl	boudica150_atcmd_response
 2770 0064 0346     		mov	r3, r0
 2771              		.loc 1 678 7
 2772 0066 002B     		cmp	r3, #0
 2773 0068 39D0     		beq	.L166
 679:C:/Users/Administrator/.iotlink/sdk/IoT_LINK/iot_link/oc/oc_lwm2m/boudica150_oc\boudica150_oc.c ****     {
 680:C:/Users/Administrator/.iotlink/sdk/IoT_LINK/iot_link/oc/oc_lwm2m/boudica150_oc\boudica150_oc.c ****         str = strstr((char *)resp,"+CSQ:");
 2774              		.loc 1 680 15
 2775 006a 07F10803 		add	r3, r7, #8
ARM GAS  C:\Users\ADMINI~1\AppData\Local\Temp\cctemkqi.s 			page 63


 2776 006e 2149     		ldr	r1, .L171+8
 2777 0070 1846     		mov	r0, r3
 2778 0072 FFF7FEFF 		bl	strstr
 2779 0076 C7F89400 		str	r0, [r7, #148]
 681:C:/Users/Administrator/.iotlink/sdk/IoT_LINK/iot_link/oc/oc_lwm2m/boudica150_oc\boudica150_oc.c ****         if(NULL != str)
 2780              		.loc 1 681 11
 2781 007a D7F89430 		ldr	r3, [r7, #148]
 2782 007e 002B     		cmp	r3, #0
 2783 0080 2DD0     		beq	.L166
 682:C:/Users/Administrator/.iotlink/sdk/IoT_LINK/iot_link/oc/oc_lwm2m/boudica150_oc\boudica150_oc.c ****         {
 683:C:/Users/Administrator/.iotlink/sdk/IoT_LINK/iot_link/oc/oc_lwm2m/boudica150_oc\boudica150_oc.c ****             str += strlen("+CSQ:");
 2784              		.loc 1 683 17
 2785 0082 D7F89430 		ldr	r3, [r7, #148]
 2786 0086 0533     		adds	r3, r3, #5
 2787 0088 C7F89430 		str	r3, [r7, #148]
 684:C:/Users/Administrator/.iotlink/sdk/IoT_LINK/iot_link/oc/oc_lwm2m/boudica150_oc\boudica150_oc.c ****             for (; *str <= '9' && *str >= '0' ;str++)
 2788              		.loc 1 684 13
 2789 008c 12E0     		b	.L167
 2790              	.L169:
 685:C:/Users/Administrator/.iotlink/sdk/IoT_LINK/iot_link/oc/oc_lwm2m/boudica150_oc\boudica150_oc.c ****             {
 686:C:/Users/Administrator/.iotlink/sdk/IoT_LINK/iot_link/oc/oc_lwm2m/boudica150_oc\boudica150_oc.c ****                 csq = (csq * 10 + (*str - '0'));
 2791              		.loc 1 686 28 discriminator 3
 2792 008e D7F89020 		ldr	r2, [r7, #144]
 2793 0092 1346     		mov	r3, r2
 2794 0094 9B00     		lsls	r3, r3, #2
 2795 0096 1344     		add	r3, r3, r2
 2796 0098 5B00     		lsls	r3, r3, #1
 2797 009a 1A46     		mov	r2, r3
 2798              		.loc 1 686 36 discriminator 3
 2799 009c D7F89430 		ldr	r3, [r7, #148]
 2800 00a0 1B78     		ldrb	r3, [r3]	@ zero_extendqisi2
 2801              		.loc 1 686 41 discriminator 3
 2802 00a2 303B     		subs	r3, r3, #48
 2803              		.loc 1 686 21 discriminator 3
 2804 00a4 1344     		add	r3, r3, r2
 2805 00a6 C7F89030 		str	r3, [r7, #144]
 684:C:/Users/Administrator/.iotlink/sdk/IoT_LINK/iot_link/oc/oc_lwm2m/boudica150_oc\boudica150_oc.c ****             for (; *str <= '9' && *str >= '0' ;str++)
 2806              		.loc 1 684 51 discriminator 3
 2807 00aa D7F89430 		ldr	r3, [r7, #148]
 2808 00ae 0133     		adds	r3, r3, #1
 2809 00b0 C7F89430 		str	r3, [r7, #148]
 2810              	.L167:
 684:C:/Users/Administrator/.iotlink/sdk/IoT_LINK/iot_link/oc/oc_lwm2m/boudica150_oc\boudica150_oc.c ****             for (; *str <= '9' && *str >= '0' ;str++)
 2811              		.loc 1 684 20 discriminator 1
 2812 00b4 D7F89430 		ldr	r3, [r7, #148]
 2813 00b8 1B78     		ldrb	r3, [r3]	@ zero_extendqisi2
 684:C:/Users/Administrator/.iotlink/sdk/IoT_LINK/iot_link/oc/oc_lwm2m/boudica150_oc\boudica150_oc.c ****             for (; *str <= '9' && *str >= '0' ;str++)
 2814              		.loc 1 684 13 discriminator 1
 2815 00ba 392B     		cmp	r3, #57
 2816 00bc 04D8     		bhi	.L168
 684:C:/Users/Administrator/.iotlink/sdk/IoT_LINK/iot_link/oc/oc_lwm2m/boudica150_oc\boudica150_oc.c ****             for (; *str <= '9' && *str >= '0' ;str++)
 2817              		.loc 1 684 35 discriminator 2
 2818 00be D7F89430 		ldr	r3, [r7, #148]
 2819 00c2 1B78     		ldrb	r3, [r3]	@ zero_extendqisi2
 684:C:/Users/Administrator/.iotlink/sdk/IoT_LINK/iot_link/oc/oc_lwm2m/boudica150_oc\boudica150_oc.c ****             for (; *str <= '9' && *str >= '0' ;str++)
 2820              		.loc 1 684 32 discriminator 2
 2821 00c4 2F2B     		cmp	r3, #47
ARM GAS  C:\Users\ADMINI~1\AppData\Local\Temp\cctemkqi.s 			page 64


 2822 00c6 E2D8     		bhi	.L169
 2823              	.L168:
 687:C:/Users/Administrator/.iotlink/sdk/IoT_LINK/iot_link/oc/oc_lwm2m/boudica150_oc\boudica150_oc.c ****             }
 688:C:/Users/Administrator/.iotlink/sdk/IoT_LINK/iot_link/oc/oc_lwm2m/boudica150_oc\boudica150_oc.c ****             if(csq != 99) //99 is invalid
 2824              		.loc 1 688 15
 2825 00c8 D7F89030 		ldr	r3, [r7, #144]
 2826 00cc 632B     		cmp	r3, #99
 2827 00ce 06D0     		beq	.L166
 689:C:/Users/Administrator/.iotlink/sdk/IoT_LINK/iot_link/oc/oc_lwm2m/boudica150_oc\boudica150_oc.c ****             {
 690:C:/Users/Administrator/.iotlink/sdk/IoT_LINK/iot_link/oc/oc_lwm2m/boudica150_oc\boudica150_oc.c ****                 *value = csq;
 2828              		.loc 1 690 24
 2829 00d0 7B68     		ldr	r3, [r7, #4]
 2830 00d2 D7F89020 		ldr	r2, [r7, #144]
 2831 00d6 1A60     		str	r2, [r3]
 691:C:/Users/Administrator/.iotlink/sdk/IoT_LINK/iot_link/oc/oc_lwm2m/boudica150_oc\boudica150_oc.c ****                 ret = 0;
 2832              		.loc 1 691 21
 2833 00d8 0023     		movs	r3, #0
 2834 00da C7F88C30 		str	r3, [r7, #140]
 2835              	.L166:
 692:C:/Users/Administrator/.iotlink/sdk/IoT_LINK/iot_link/oc/oc_lwm2m/boudica150_oc\boudica150_oc.c ****             }
 693:C:/Users/Administrator/.iotlink/sdk/IoT_LINK/iot_link/oc/oc_lwm2m/boudica150_oc\boudica150_oc.c ****         }
 694:C:/Users/Administrator/.iotlink/sdk/IoT_LINK/iot_link/oc/oc_lwm2m/boudica150_oc\boudica150_oc.c ****     }
 695:C:/Users/Administrator/.iotlink/sdk/IoT_LINK/iot_link/oc/oc_lwm2m/boudica150_oc\boudica150_oc.c ****     return ret;
 2836              		.loc 1 695 12
 2837 00de D7F88C30 		ldr	r3, [r7, #140]
 2838              	.L170:
 696:C:/Users/Administrator/.iotlink/sdk/IoT_LINK/iot_link/oc/oc_lwm2m/boudica150_oc\boudica150_oc.c **** }
 2839              		.loc 1 696 1 discriminator 1
 2840 00e2 1846     		mov	r0, r3
 2841 00e4 9837     		adds	r7, r7, #152
 2842              	.LCFI122:
 2843              		.cfi_def_cfa_offset 8
 2844 00e6 BD46     		mov	sp, r7
 2845              	.LCFI123:
 2846              		.cfi_def_cfa_register 13
 2847              		@ sp needed
 2848 00e8 80BD     		pop	{r7, pc}
 2849              	.L172:
 2850 00ea 00BF     		.align	2
 2851              	.L171:
 2852 00ec 14000000 		.word	.LC2
 2853 00f0 FC020000 		.word	.LC43
 2854 00f4 04030000 		.word	.LC44
 2855              		.cfi_endproc
 2856              	.LFE27:
 2858              		.section	.rodata
 2859 030a 0000     		.align	2
 2860              	.LC45:
 2861 030c 41542B4E 		.ascii	"AT+NUESTATS=CELL\015\000"
 2861      55455354 
 2861      4154533D 
 2861      43454C4C 
 2861      0D00
 2862 031e 0000     		.align	2
 2863              	.LC46:
 2864 0320 4E554553 		.ascii	"NUESTATS:\000"
 2864      54415453 
ARM GAS  C:\Users\ADMINI~1\AppData\Local\Temp\cctemkqi.s 			page 65


 2864      3A00
 2865 032a 0000     		.align	2
 2866              	.LC47:
 2867 032c 4E554553 		.ascii	"NUESTATS:CELL,%d,%d,%d,%d,%d,%d,%d\000"
 2867      54415453 
 2867      3A43454C 
 2867      4C2C2564 
 2867      2C25642C 
 2868 034f 00       		.align	2
 2869              	.LC48:
 2870 0350 41542B4E 		.ascii	"AT+NUESTATS\015\000"
 2870      55455354 
 2870      4154530D 
 2870      00
 2871 035d 000000   		.align	2
 2872              	.LC49:
 2873 0360 45434C3A 		.ascii	"ECL:\000"
 2873      00
 2874 0365 000000   		.align	2
 2875              	.LC50:
 2876 0368 45434C3A 		.ascii	"ECL:%d\000"
 2876      256400
 2877 036f 00       		.align	2
 2878              	.LC51:
 2879 0370 534E523A 		.ascii	"SNR:\000"
 2879      00
 2880 0375 000000   		.align	2
 2881              	.LC52:
 2882 0378 534E523A 		.ascii	"SNR:%d\000"
 2882      256400
 2883 037f 00       		.align	2
 2884              	.LC53:
 2885 0380 43656C6C 		.ascii	"Cell ID:\000"
 2885      2049443A 
 2885      00
 2886 0389 000000   		.align	2
 2887              	.LC54:
 2888 038c 43656C6C 		.ascii	"Cell ID:%d\000"
 2888      2049443A 
 2888      256400
 2889              		.section	.text.boudica150_check_nuestats,"ax",%progbits
 2890              		.align	1
 2891              		.global	boudica150_check_nuestats
 2892              		.syntax unified
 2893              		.thumb
 2894              		.thumb_func
 2895              		.fpu fpv4-sp-d16
 2897              	boudica150_check_nuestats:
 2898              	.LFB28:
 697:C:/Users/Administrator/.iotlink/sdk/IoT_LINK/iot_link/oc/oc_lwm2m/boudica150_oc\boudica150_oc.c **** 
 698:C:/Users/Administrator/.iotlink/sdk/IoT_LINK/iot_link/oc/oc_lwm2m/boudica150_oc\boudica150_oc.c **** int* boudica150_check_nuestats(void)
 699:C:/Users/Administrator/.iotlink/sdk/IoT_LINK/iot_link/oc/oc_lwm2m/boudica150_oc\boudica150_oc.c **** {
 2899              		.loc 1 699 1
 2900              		.cfi_startproc
 2901              		@ args = 0, pretend = 0, frame = 352
 2902              		@ frame_needed = 1, uses_anonymous_args = 0
 2903 0000 80B5     		push	{r7, lr}
ARM GAS  C:\Users\ADMINI~1\AppData\Local\Temp\cctemkqi.s 			page 66


 2904              	.LCFI124:
 2905              		.cfi_def_cfa_offset 8
 2906              		.cfi_offset 7, -8
 2907              		.cfi_offset 14, -4
 2908 0002 DEB0     		sub	sp, sp, #376
 2909              	.LCFI125:
 2910              		.cfi_def_cfa_offset 384
 2911 0004 06AF     		add	r7, sp, #24
 2912              	.LCFI126:
 2913              		.cfi_def_cfa 7, 360
 700:C:/Users/Administrator/.iotlink/sdk/IoT_LINK/iot_link/oc/oc_lwm2m/boudica150_oc\boudica150_oc.c ****     char cmd[64];
 701:C:/Users/Administrator/.iotlink/sdk/IoT_LINK/iot_link/oc/oc_lwm2m/boudica150_oc\boudica150_oc.c ****     char resp[256];
 702:C:/Users/Administrator/.iotlink/sdk/IoT_LINK/iot_link/oc/oc_lwm2m/boudica150_oc\boudica150_oc.c ****     char *str;
 703:C:/Users/Administrator/.iotlink/sdk/IoT_LINK/iot_link/oc/oc_lwm2m/boudica150_oc\boudica150_oc.c **** 
 704:C:/Users/Administrator/.iotlink/sdk/IoT_LINK/iot_link/oc/oc_lwm2m/boudica150_oc\boudica150_oc.c ****     (void) memset(cmd,0,64);
 2914              		.loc 1 704 12
 2915 0006 07F58E73 		add	r3, r7, #284
 2916 000a 4022     		movs	r2, #64
 2917 000c 0021     		movs	r1, #0
 2918 000e 1846     		mov	r0, r3
 2919 0010 FFF7FEFF 		bl	memset
 705:C:/Users/Administrator/.iotlink/sdk/IoT_LINK/iot_link/oc/oc_lwm2m/boudica150_oc\boudica150_oc.c ****     (void) memset(resp,0,64);
 2920              		.loc 1 705 12
 2921 0014 07F11C03 		add	r3, r7, #28
 2922 0018 4022     		movs	r2, #64
 2923 001a 0021     		movs	r1, #0
 2924 001c 1846     		mov	r0, r3
 2925 001e FFF7FEFF 		bl	memset
 706:C:/Users/Administrator/.iotlink/sdk/IoT_LINK/iot_link/oc/oc_lwm2m/boudica150_oc\boudica150_oc.c ****     (void) snprintf(cmd,64,"AT+NUESTATS=CELL\r");
 2926              		.loc 1 706 12
 2927 0022 07F58E73 		add	r3, r7, #284
 2928 0026 4D4A     		ldr	r2, .L182
 2929 0028 4021     		movs	r1, #64
 2930 002a 1846     		mov	r0, r3
 2931 002c FFF7FEFF 		bl	snprintf
 707:C:/Users/Administrator/.iotlink/sdk/IoT_LINK/iot_link/oc/oc_lwm2m/boudica150_oc\boudica150_oc.c **** 
 708:C:/Users/Administrator/.iotlink/sdk/IoT_LINK/iot_link/oc/oc_lwm2m/boudica150_oc\boudica150_oc.c ****     if (boudica150_atcmd_response(cmd,"NUESTATS:",resp,256) < 0)
 2932              		.loc 1 708 9
 2933 0030 07F11C02 		add	r2, r7, #28
 2934 0034 07F58E70 		add	r0, r7, #284
 2935 0038 4FF48073 		mov	r3, #256
 2936 003c 4849     		ldr	r1, .L182+4
 2937 003e FFF7FEFF 		bl	boudica150_atcmd_response
 2938 0042 0346     		mov	r3, r0
 2939              		.loc 1 708 8
 2940 0044 002B     		cmp	r3, #0
 2941 0046 01DA     		bge	.L174
 709:C:/Users/Administrator/.iotlink/sdk/IoT_LINK/iot_link/oc/oc_lwm2m/boudica150_oc\boudica150_oc.c ****     {
 710:C:/Users/Administrator/.iotlink/sdk/IoT_LINK/iot_link/oc/oc_lwm2m/boudica150_oc\boudica150_oc.c ****     	return NULL;
 2942              		.loc 1 710 13
 2943 0048 0023     		movs	r3, #0
 2944 004a 82E0     		b	.L181
 2945              	.L174:
 711:C:/Users/Administrator/.iotlink/sdk/IoT_LINK/iot_link/oc/oc_lwm2m/boudica150_oc\boudica150_oc.c ****     }
 712:C:/Users/Administrator/.iotlink/sdk/IoT_LINK/iot_link/oc/oc_lwm2m/boudica150_oc\boudica150_oc.c ****     str = strstr(resp,"NUESTATS:");
 2946              		.loc 1 712 11
 2947 004c 07F11C03 		add	r3, r7, #28
ARM GAS  C:\Users\ADMINI~1\AppData\Local\Temp\cctemkqi.s 			page 67


 2948 0050 4349     		ldr	r1, .L182+4
 2949 0052 1846     		mov	r0, r3
 2950 0054 FFF7FEFF 		bl	strstr
 2951 0058 C7F85C01 		str	r0, [r7, #348]
 713:C:/Users/Administrator/.iotlink/sdk/IoT_LINK/iot_link/oc/oc_lwm2m/boudica150_oc\boudica150_oc.c ****     if (str == NULL)
 2952              		.loc 1 713 8
 2953 005c D7F85C31 		ldr	r3, [r7, #348]
 2954 0060 002B     		cmp	r3, #0
 2955 0062 01D1     		bne	.L176
 714:C:/Users/Administrator/.iotlink/sdk/IoT_LINK/iot_link/oc/oc_lwm2m/boudica150_oc\boudica150_oc.c ****     {
 715:C:/Users/Administrator/.iotlink/sdk/IoT_LINK/iot_link/oc/oc_lwm2m/boudica150_oc\boudica150_oc.c ****     	return NULL;
 2956              		.loc 1 715 13
 2957 0064 0023     		movs	r3, #0
 2958 0066 74E0     		b	.L181
 2959              	.L176:
 716:C:/Users/Administrator/.iotlink/sdk/IoT_LINK/iot_link/oc/oc_lwm2m/boudica150_oc\boudica150_oc.c ****     }
 717:C:/Users/Administrator/.iotlink/sdk/IoT_LINK/iot_link/oc/oc_lwm2m/boudica150_oc\boudica150_oc.c ****     int earfcn, physical_cellid, primary_cell, rsrp, rsrq, rssi, snr;  //for now only rsrp is neede
 718:C:/Users/Administrator/.iotlink/sdk/IoT_LINK/iot_link/oc/oc_lwm2m/boudica150_oc\boudica150_oc.c ****     sscanf(str,"NUESTATS:CELL,%d,%d,%d,%d,%d,%d,%d",&earfcn, &physical_cellid, &primary_cell, &rsrp
 2960              		.loc 1 718 5
 2961 0068 07F11401 		add	r1, r7, #20
 2962 006c 07F11802 		add	r2, r7, #24
 2963 0070 3B46     		mov	r3, r7
 2964 0072 0493     		str	r3, [sp, #16]
 2965 0074 3B1D     		adds	r3, r7, #4
 2966 0076 0393     		str	r3, [sp, #12]
 2967 0078 07F10803 		add	r3, r7, #8
 2968 007c 0293     		str	r3, [sp, #8]
 2969 007e 07F10C03 		add	r3, r7, #12
 2970 0082 0193     		str	r3, [sp, #4]
 2971 0084 07F11003 		add	r3, r7, #16
 2972 0088 0093     		str	r3, [sp]
 2973 008a 0B46     		mov	r3, r1
 2974 008c 3549     		ldr	r1, .L182+8
 2975 008e D7F85C01 		ldr	r0, [r7, #348]
 2976 0092 FFF7FEFF 		bl	sscanf
 719:C:/Users/Administrator/.iotlink/sdk/IoT_LINK/iot_link/oc/oc_lwm2m/boudica150_oc\boudica150_oc.c ****     wireless_stats[0] = rsrp;
 2977              		.loc 1 719 23
 2978 0096 07F10C03 		add	r3, r7, #12
 2979 009a 1B68     		ldr	r3, [r3]
 2980 009c 324A     		ldr	r2, .L182+12
 2981 009e 1360     		str	r3, [r2]
 720:C:/Users/Administrator/.iotlink/sdk/IoT_LINK/iot_link/oc/oc_lwm2m/boudica150_oc\boudica150_oc.c **** 
 721:C:/Users/Administrator/.iotlink/sdk/IoT_LINK/iot_link/oc/oc_lwm2m/boudica150_oc\boudica150_oc.c ****     (void) memset(cmd,0,64);
 2982              		.loc 1 721 12
 2983 00a0 07F58E73 		add	r3, r7, #284
 2984 00a4 4022     		movs	r2, #64
 2985 00a6 0021     		movs	r1, #0
 2986 00a8 1846     		mov	r0, r3
 2987 00aa FFF7FEFF 		bl	memset
 722:C:/Users/Administrator/.iotlink/sdk/IoT_LINK/iot_link/oc/oc_lwm2m/boudica150_oc\boudica150_oc.c ****     (void) snprintf(cmd,64,"AT+NUESTATS\r");
 2988              		.loc 1 722 12
 2989 00ae 07F58E73 		add	r3, r7, #284
 2990 00b2 2E4A     		ldr	r2, .L182+16
 2991 00b4 4021     		movs	r1, #64
 2992 00b6 1846     		mov	r0, r3
 2993 00b8 FFF7FEFF 		bl	snprintf
 723:C:/Users/Administrator/.iotlink/sdk/IoT_LINK/iot_link/oc/oc_lwm2m/boudica150_oc\boudica150_oc.c ****     if (boudica150_atcmd_response(cmd,"OK",resp,256) < 0)
ARM GAS  C:\Users\ADMINI~1\AppData\Local\Temp\cctemkqi.s 			page 68


 2994              		.loc 1 723 9
 2995 00bc 07F11C02 		add	r2, r7, #28
 2996 00c0 07F58E70 		add	r0, r7, #284
 2997 00c4 4FF48073 		mov	r3, #256
 2998 00c8 2949     		ldr	r1, .L182+20
 2999 00ca FFF7FEFF 		bl	boudica150_atcmd_response
 3000 00ce 0346     		mov	r3, r0
 3001              		.loc 1 723 8
 3002 00d0 002B     		cmp	r3, #0
 3003 00d2 01DA     		bge	.L177
 724:C:/Users/Administrator/.iotlink/sdk/IoT_LINK/iot_link/oc/oc_lwm2m/boudica150_oc\boudica150_oc.c ****     {
 725:C:/Users/Administrator/.iotlink/sdk/IoT_LINK/iot_link/oc/oc_lwm2m/boudica150_oc\boudica150_oc.c ****         return NULL;
 3004              		.loc 1 725 16
 3005 00d4 0023     		movs	r3, #0
 3006 00d6 3CE0     		b	.L181
 3007              	.L177:
 726:C:/Users/Administrator/.iotlink/sdk/IoT_LINK/iot_link/oc/oc_lwm2m/boudica150_oc\boudica150_oc.c ****     }
 727:C:/Users/Administrator/.iotlink/sdk/IoT_LINK/iot_link/oc/oc_lwm2m/boudica150_oc\boudica150_oc.c ****     str = strstr(resp,"ECL:");
 3008              		.loc 1 727 11
 3009 00d8 07F11C03 		add	r3, r7, #28
 3010 00dc 2549     		ldr	r1, .L182+24
 3011 00de 1846     		mov	r0, r3
 3012 00e0 FFF7FEFF 		bl	strstr
 3013 00e4 C7F85C01 		str	r0, [r7, #348]
 728:C:/Users/Administrator/.iotlink/sdk/IoT_LINK/iot_link/oc/oc_lwm2m/boudica150_oc\boudica150_oc.c ****     if (str == NULL)
 3014              		.loc 1 728 8
 3015 00e8 D7F85C31 		ldr	r3, [r7, #348]
 3016 00ec 002B     		cmp	r3, #0
 3017 00ee 01D1     		bne	.L178
 729:C:/Users/Administrator/.iotlink/sdk/IoT_LINK/iot_link/oc/oc_lwm2m/boudica150_oc\boudica150_oc.c ****     {
 730:C:/Users/Administrator/.iotlink/sdk/IoT_LINK/iot_link/oc/oc_lwm2m/boudica150_oc\boudica150_oc.c ****     	return NULL;
 3018              		.loc 1 730 13
 3019 00f0 0023     		movs	r3, #0
 3020 00f2 2EE0     		b	.L181
 3021              	.L178:
 731:C:/Users/Administrator/.iotlink/sdk/IoT_LINK/iot_link/oc/oc_lwm2m/boudica150_oc\boudica150_oc.c ****     }
 732:C:/Users/Administrator/.iotlink/sdk/IoT_LINK/iot_link/oc/oc_lwm2m/boudica150_oc\boudica150_oc.c ****     sscanf(str,"ECL:%d",&wireless_stats[1]);
 3022              		.loc 1 732 5
 3023 00f4 204A     		ldr	r2, .L182+28
 3024 00f6 2149     		ldr	r1, .L182+32
 3025 00f8 D7F85C01 		ldr	r0, [r7, #348]
 3026 00fc FFF7FEFF 		bl	sscanf
 733:C:/Users/Administrator/.iotlink/sdk/IoT_LINK/iot_link/oc/oc_lwm2m/boudica150_oc\boudica150_oc.c **** 
 734:C:/Users/Administrator/.iotlink/sdk/IoT_LINK/iot_link/oc/oc_lwm2m/boudica150_oc\boudica150_oc.c ****     str = strstr(resp,"SNR:");
 3027              		.loc 1 734 11
 3028 0100 07F11C03 		add	r3, r7, #28
 3029 0104 1E49     		ldr	r1, .L182+36
 3030 0106 1846     		mov	r0, r3
 3031 0108 FFF7FEFF 		bl	strstr
 3032 010c C7F85C01 		str	r0, [r7, #348]
 735:C:/Users/Administrator/.iotlink/sdk/IoT_LINK/iot_link/oc/oc_lwm2m/boudica150_oc\boudica150_oc.c ****     if (str == NULL)
 3033              		.loc 1 735 8
 3034 0110 D7F85C31 		ldr	r3, [r7, #348]
 3035 0114 002B     		cmp	r3, #0
 3036 0116 01D1     		bne	.L179
 736:C:/Users/Administrator/.iotlink/sdk/IoT_LINK/iot_link/oc/oc_lwm2m/boudica150_oc\boudica150_oc.c ****     {
 737:C:/Users/Administrator/.iotlink/sdk/IoT_LINK/iot_link/oc/oc_lwm2m/boudica150_oc\boudica150_oc.c ****         return NULL;
ARM GAS  C:\Users\ADMINI~1\AppData\Local\Temp\cctemkqi.s 			page 69


 3037              		.loc 1 737 16
 3038 0118 0023     		movs	r3, #0
 3039 011a 1AE0     		b	.L181
 3040              	.L179:
 738:C:/Users/Administrator/.iotlink/sdk/IoT_LINK/iot_link/oc/oc_lwm2m/boudica150_oc\boudica150_oc.c ****     }
 739:C:/Users/Administrator/.iotlink/sdk/IoT_LINK/iot_link/oc/oc_lwm2m/boudica150_oc\boudica150_oc.c ****     sscanf(str,"SNR:%d",&wireless_stats[2]);
 3041              		.loc 1 739 5
 3042 011c 194A     		ldr	r2, .L182+40
 3043 011e 1A49     		ldr	r1, .L182+44
 3044 0120 D7F85C01 		ldr	r0, [r7, #348]
 3045 0124 FFF7FEFF 		bl	sscanf
 740:C:/Users/Administrator/.iotlink/sdk/IoT_LINK/iot_link/oc/oc_lwm2m/boudica150_oc\boudica150_oc.c **** 
 741:C:/Users/Administrator/.iotlink/sdk/IoT_LINK/iot_link/oc/oc_lwm2m/boudica150_oc\boudica150_oc.c ****     str = strstr(resp,"Cell ID:");
 3046              		.loc 1 741 11
 3047 0128 07F11C03 		add	r3, r7, #28
 3048 012c 1749     		ldr	r1, .L182+48
 3049 012e 1846     		mov	r0, r3
 3050 0130 FFF7FEFF 		bl	strstr
 3051 0134 C7F85C01 		str	r0, [r7, #348]
 742:C:/Users/Administrator/.iotlink/sdk/IoT_LINK/iot_link/oc/oc_lwm2m/boudica150_oc\boudica150_oc.c ****     if (str == NULL)
 3052              		.loc 1 742 8
 3053 0138 D7F85C31 		ldr	r3, [r7, #348]
 3054 013c 002B     		cmp	r3, #0
 3055 013e 01D1     		bne	.L180
 743:C:/Users/Administrator/.iotlink/sdk/IoT_LINK/iot_link/oc/oc_lwm2m/boudica150_oc\boudica150_oc.c ****     {
 744:C:/Users/Administrator/.iotlink/sdk/IoT_LINK/iot_link/oc/oc_lwm2m/boudica150_oc\boudica150_oc.c ****         return NULL;
 3056              		.loc 1 744 16
 3057 0140 0023     		movs	r3, #0
 3058 0142 06E0     		b	.L181
 3059              	.L180:
 745:C:/Users/Administrator/.iotlink/sdk/IoT_LINK/iot_link/oc/oc_lwm2m/boudica150_oc\boudica150_oc.c ****     }
 746:C:/Users/Administrator/.iotlink/sdk/IoT_LINK/iot_link/oc/oc_lwm2m/boudica150_oc\boudica150_oc.c ****     sscanf(str,"Cell ID:%d",&wireless_stats[3]);
 3060              		.loc 1 746 5
 3061 0144 124A     		ldr	r2, .L182+52
 3062 0146 1349     		ldr	r1, .L182+56
 3063 0148 D7F85C01 		ldr	r0, [r7, #348]
 3064 014c FFF7FEFF 		bl	sscanf
 747:C:/Users/Administrator/.iotlink/sdk/IoT_LINK/iot_link/oc/oc_lwm2m/boudica150_oc\boudica150_oc.c **** 
 748:C:/Users/Administrator/.iotlink/sdk/IoT_LINK/iot_link/oc/oc_lwm2m/boudica150_oc\boudica150_oc.c ****     return wireless_stats;
 3065              		.loc 1 748 12
 3066 0150 054B     		ldr	r3, .L182+12
 3067              	.L181:
 749:C:/Users/Administrator/.iotlink/sdk/IoT_LINK/iot_link/oc/oc_lwm2m/boudica150_oc\boudica150_oc.c **** }
 3068              		.loc 1 749 1 discriminator 1
 3069 0152 1846     		mov	r0, r3
 3070 0154 07F5B077 		add	r7, r7, #352
 3071              	.LCFI127:
 3072              		.cfi_def_cfa_offset 8
 3073 0158 BD46     		mov	sp, r7
 3074              	.LCFI128:
 3075              		.cfi_def_cfa_register 13
 3076              		@ sp needed
 3077 015a 80BD     		pop	{r7, pc}
 3078              	.L183:
 3079              		.align	2
 3080              	.L182:
 3081 015c 0C030000 		.word	.LC45
ARM GAS  C:\Users\ADMINI~1\AppData\Local\Temp\cctemkqi.s 			page 70


 3082 0160 20030000 		.word	.LC46
 3083 0164 2C030000 		.word	.LC47
 3084 0168 00000000 		.word	wireless_stats
 3085 016c 50030000 		.word	.LC48
 3086 0170 14000000 		.word	.LC2
 3087 0174 60030000 		.word	.LC49
 3088 0178 04000000 		.word	wireless_stats+4
 3089 017c 68030000 		.word	.LC50
 3090 0180 70030000 		.word	.LC51
 3091 0184 08000000 		.word	wireless_stats+8
 3092 0188 78030000 		.word	.LC52
 3093 018c 80030000 		.word	.LC53
 3094 0190 0C000000 		.word	wireless_stats+12
 3095 0194 8C030000 		.word	.LC54
 3096              		.cfi_endproc
 3097              	.LFE28:
 3099              		.global	g_boudica150_oc_opt
 3100              		.section	.rodata.g_boudica150_oc_opt,"a"
 3101              		.align	2
 3104              	g_boudica150_oc_opt:
 3105 0000 00000000 		.word	boudica150_oc_config
 3106 0004 00000000 		.word	boudica150_oc_report
 3107 0008 00000000 		.word	boudica150_oc_deconfig
 3108              		.section	.rodata
 3109 0397 00       		.align	2
 3110              	.LC55:
 3111 0398 352C382C 		.ascii	"5,8,20\000"
 3111      323000
 3112 039f 00       		.align	2
 3113              	.LC56:
 3114 03a0 626F7564 		.ascii	"boudica150\000"
 3114      69636131 
 3114      353000
 3115              		.section	.text.oc_lwm2m_imp_init,"ax",%progbits
 3116              		.align	1
 3117              		.global	oc_lwm2m_imp_init
 3118              		.syntax unified
 3119              		.thumb
 3120              		.thumb_func
 3121              		.fpu fpv4-sp-d16
 3123              	oc_lwm2m_imp_init:
 3124              	.LFB29:
 750:C:/Users/Administrator/.iotlink/sdk/IoT_LINK/iot_link/oc/oc_lwm2m/boudica150_oc\boudica150_oc.c **** 
 751:C:/Users/Administrator/.iotlink/sdk/IoT_LINK/iot_link/oc/oc_lwm2m/boudica150_oc\boudica150_oc.c **** const oc_lwm2m_opt_t  g_boudica150_oc_opt = \
 752:C:/Users/Administrator/.iotlink/sdk/IoT_LINK/iot_link/oc/oc_lwm2m/boudica150_oc\boudica150_oc.c **** {
 753:C:/Users/Administrator/.iotlink/sdk/IoT_LINK/iot_link/oc/oc_lwm2m/boudica150_oc\boudica150_oc.c ****     .config = boudica150_oc_config,
 754:C:/Users/Administrator/.iotlink/sdk/IoT_LINK/iot_link/oc/oc_lwm2m/boudica150_oc\boudica150_oc.c ****     .deconfig = boudica150_oc_deconfig,
 755:C:/Users/Administrator/.iotlink/sdk/IoT_LINK/iot_link/oc/oc_lwm2m/boudica150_oc\boudica150_oc.c ****     .report = (fn_oc_lwm2m_report)boudica150_oc_report,
 756:C:/Users/Administrator/.iotlink/sdk/IoT_LINK/iot_link/oc/oc_lwm2m/boudica150_oc\boudica150_oc.c **** };
 757:C:/Users/Administrator/.iotlink/sdk/IoT_LINK/iot_link/oc/oc_lwm2m/boudica150_oc\boudica150_oc.c **** 
 758:C:/Users/Administrator/.iotlink/sdk/IoT_LINK/iot_link/oc/oc_lwm2m/boudica150_oc\boudica150_oc.c **** 
 759:C:/Users/Administrator/.iotlink/sdk/IoT_LINK/iot_link/oc/oc_lwm2m/boudica150_oc\boudica150_oc.c **** #ifndef CONFIG_BOUDICA150_PLMN
 760:C:/Users/Administrator/.iotlink/sdk/IoT_LINK/iot_link/oc/oc_lwm2m/boudica150_oc\boudica150_oc.c **** #define CONFIG_BOUDICA150_PLMN  "460001"
 761:C:/Users/Administrator/.iotlink/sdk/IoT_LINK/iot_link/oc/oc_lwm2m/boudica150_oc\boudica150_oc.c **** #endif
 762:C:/Users/Administrator/.iotlink/sdk/IoT_LINK/iot_link/oc/oc_lwm2m/boudica150_oc\boudica150_oc.c **** 
 763:C:/Users/Administrator/.iotlink/sdk/IoT_LINK/iot_link/oc/oc_lwm2m/boudica150_oc\boudica150_oc.c **** 
 764:C:/Users/Administrator/.iotlink/sdk/IoT_LINK/iot_link/oc/oc_lwm2m/boudica150_oc\boudica150_oc.c **** #ifndef CONFIG_BOUDICA150_APN
ARM GAS  C:\Users\ADMINI~1\AppData\Local\Temp\cctemkqi.s 			page 71


 765:C:/Users/Administrator/.iotlink/sdk/IoT_LINK/iot_link/oc/oc_lwm2m/boudica150_oc\boudica150_oc.c **** #define CONFIG_BOUDICA150_APN   "cmnet"
 766:C:/Users/Administrator/.iotlink/sdk/IoT_LINK/iot_link/oc/oc_lwm2m/boudica150_oc\boudica150_oc.c **** #endif
 767:C:/Users/Administrator/.iotlink/sdk/IoT_LINK/iot_link/oc/oc_lwm2m/boudica150_oc\boudica150_oc.c **** 
 768:C:/Users/Administrator/.iotlink/sdk/IoT_LINK/iot_link/oc/oc_lwm2m/boudica150_oc\boudica150_oc.c **** 
 769:C:/Users/Administrator/.iotlink/sdk/IoT_LINK/iot_link/oc/oc_lwm2m/boudica150_oc\boudica150_oc.c **** #ifndef CONFIG_BOUDICA150_BANDS
 770:C:/Users/Administrator/.iotlink/sdk/IoT_LINK/iot_link/oc/oc_lwm2m/boudica150_oc\boudica150_oc.c **** #define CONFIG_BOUDICA150_BANDS  "5,8,20"
 771:C:/Users/Administrator/.iotlink/sdk/IoT_LINK/iot_link/oc/oc_lwm2m/boudica150_oc\boudica150_oc.c **** #endif
 772:C:/Users/Administrator/.iotlink/sdk/IoT_LINK/iot_link/oc/oc_lwm2m/boudica150_oc\boudica150_oc.c **** 
 773:C:/Users/Administrator/.iotlink/sdk/IoT_LINK/iot_link/oc/oc_lwm2m/boudica150_oc\boudica150_oc.c **** int oc_lwm2m_imp_init(void)
 774:C:/Users/Administrator/.iotlink/sdk/IoT_LINK/iot_link/oc/oc_lwm2m/boudica150_oc\boudica150_oc.c **** {
 3125              		.loc 1 774 1
 3126              		.cfi_startproc
 3127              		@ args = 0, pretend = 0, frame = 8
 3128              		@ frame_needed = 1, uses_anonymous_args = 0
 3129 0000 80B5     		push	{r7, lr}
 3130              	.LCFI129:
 3131              		.cfi_def_cfa_offset 8
 3132              		.cfi_offset 7, -8
 3133              		.cfi_offset 14, -4
 3134 0002 82B0     		sub	sp, sp, #8
 3135              	.LCFI130:
 3136              		.cfi_def_cfa_offset 16
 3137 0004 00AF     		add	r7, sp, #0
 3138              	.LCFI131:
 3139              		.cfi_def_cfa_register 7
 775:C:/Users/Administrator/.iotlink/sdk/IoT_LINK/iot_link/oc/oc_lwm2m/boudica150_oc\boudica150_oc.c ****     int ret = -1;
 3140              		.loc 1 775 9
 3141 0006 4FF0FF33 		mov	r3, #-1
 3142 000a 7B60     		str	r3, [r7, #4]
 776:C:/Users/Administrator/.iotlink/sdk/IoT_LINK/iot_link/oc/oc_lwm2m/boudica150_oc\boudica150_oc.c **** 
 777:C:/Users/Administrator/.iotlink/sdk/IoT_LINK/iot_link/oc/oc_lwm2m/boudica150_oc\boudica150_oc.c ****     s_boudica150_oc_cb.plmn = NULL;
 3143              		.loc 1 777 29
 3144 000c 0A4B     		ldr	r3, .L186
 3145 000e 0022     		movs	r2, #0
 3146 0010 1A60     		str	r2, [r3]
 778:C:/Users/Administrator/.iotlink/sdk/IoT_LINK/iot_link/oc/oc_lwm2m/boudica150_oc\boudica150_oc.c ****     s_boudica150_oc_cb.apn = NULL;
 3147              		.loc 1 778 28
 3148 0012 094B     		ldr	r3, .L186
 3149 0014 0022     		movs	r2, #0
 3150 0016 5A60     		str	r2, [r3, #4]
 779:C:/Users/Administrator/.iotlink/sdk/IoT_LINK/iot_link/oc/oc_lwm2m/boudica150_oc\boudica150_oc.c ****     s_boudica150_oc_cb.bands = CONFIG_BOUDICA150_BANDS;
 3151              		.loc 1 779 30
 3152 0018 074B     		ldr	r3, .L186
 3153 001a 084A     		ldr	r2, .L186+4
 3154 001c 9A60     		str	r2, [r3, #8]
 780:C:/Users/Administrator/.iotlink/sdk/IoT_LINK/iot_link/oc/oc_lwm2m/boudica150_oc\boudica150_oc.c **** 
 781:C:/Users/Administrator/.iotlink/sdk/IoT_LINK/iot_link/oc/oc_lwm2m/boudica150_oc\boudica150_oc.c ****     osal_mutex_create(&s_report_mutex);
 3155              		.loc 1 781 5
 3156 001e 0848     		ldr	r0, .L186+8
 3157 0020 FFF7FEFF 		bl	osal_mutex_create
 782:C:/Users/Administrator/.iotlink/sdk/IoT_LINK/iot_link/oc/oc_lwm2m/boudica150_oc\boudica150_oc.c **** 
 783:C:/Users/Administrator/.iotlink/sdk/IoT_LINK/iot_link/oc/oc_lwm2m/boudica150_oc\boudica150_oc.c ****     ret = oc_lwm2m_register("boudica150",&g_boudica150_oc_opt);
 3158              		.loc 1 783 11
 3159 0024 0749     		ldr	r1, .L186+12
 3160 0026 0848     		ldr	r0, .L186+16
 3161 0028 FFF7FEFF 		bl	oc_lwm2m_register
 3162 002c 7860     		str	r0, [r7, #4]
ARM GAS  C:\Users\ADMINI~1\AppData\Local\Temp\cctemkqi.s 			page 72


 784:C:/Users/Administrator/.iotlink/sdk/IoT_LINK/iot_link/oc/oc_lwm2m/boudica150_oc\boudica150_oc.c **** 
 785:C:/Users/Administrator/.iotlink/sdk/IoT_LINK/iot_link/oc/oc_lwm2m/boudica150_oc\boudica150_oc.c ****     return ret;
 3163              		.loc 1 785 12
 3164 002e 7B68     		ldr	r3, [r7, #4]
 786:C:/Users/Administrator/.iotlink/sdk/IoT_LINK/iot_link/oc/oc_lwm2m/boudica150_oc\boudica150_oc.c **** }
 3165              		.loc 1 786 1
 3166 0030 1846     		mov	r0, r3
 3167 0032 0837     		adds	r7, r7, #8
 3168              	.LCFI132:
 3169              		.cfi_def_cfa_offset 8
 3170 0034 BD46     		mov	sp, r7
 3171              	.LCFI133:
 3172              		.cfi_def_cfa_register 13
 3173              		@ sp needed
 3174 0036 80BD     		pop	{r7, pc}
 3175              	.L187:
 3176              		.align	2
 3177              	.L186:
 3178 0038 00000000 		.word	s_boudica150_oc_cb
 3179 003c 98030000 		.word	.LC55
 3180 0040 00000000 		.word	s_report_mutex
 3181 0044 00000000 		.word	g_boudica150_oc_opt
 3182 0048 A0030000 		.word	.LC56
 3183              		.cfi_endproc
 3184              	.LFE29:
 3186              		.section	.rodata.__FUNCTION__.7087,"a"
 3187              		.align	2
 3190              	__FUNCTION__.7087:
 3191 0000 626F7564 		.ascii	"boudica150_rcvdeal\000"
 3191      69636131 
 3191      35305F72 
 3191      63766465 
 3191      616C00
 3192              		.section	.rodata.__FUNCTION__.7158,"a"
 3193              		.align	2
 3196              	__FUNCTION__.7158:
 3197 0000 7572635F 		.ascii	"urc_qlwevtind\000"
 3197      716C7765 
 3197      7674696E 
 3197      6400
 3198              		.section	.rodata.__FUNCTION__.7192,"a"
 3199              		.align	2
 3202              	__FUNCTION__.7192:
 3203 0000 626F7564 		.ascii	"boudica150_boot\000"
 3203      69636131 
 3203      35305F62 
 3203      6F6F7400 
 3204              		.text
 3205              	.Letext0:
 3206              		.file 2 "c:\\users\\administrator\\.iotlink\\tools\\gcc-arm-none-eabi\\lib\\gcc\\arm-none-eabi\\9.
 3207              		.file 3 "c:\\users\\administrator\\.iotlink\\tools\\gcc-arm-none-eabi\\arm-none-eabi\\include\\sys
 3208              		.file 4 "c:\\users\\administrator\\.iotlink\\tools\\gcc-arm-none-eabi\\arm-none-eabi\\include\\sys
 3209              		.file 5 "c:\\users\\administrator\\.iotlink\\tools\\gcc-arm-none-eabi\\arm-none-eabi\\include\\sys
 3210              		.file 6 "C:/Users/Administrator/.iotlink/sdk/IoT_LINK/iot_link/os/osal/osal_types.h"
 3211              		.file 7 "C:/Users/Administrator/.iotlink/sdk/IoT_LINK/iot_link/oc/oc_lwm2m/oc_lwm2m_al/oc_lwm2m_al
 3212              		.file 8 "C:/Users/Administrator/.iotlink/sdk/IoT_LINK/iot_link/inc/link_log.h"
ARM GAS  C:\Users\ADMINI~1\AppData\Local\Temp\cctemkqi.s 			page 73

